TI ARM Assembler PC v18.12.2 Sat Dec 14 17:40:32 2019

Copyright (c) 1996-2018 Texas Instruments Incorporated
BL_Master.asm                                                        PAGE    1

       1                    ;******************************************************************************
       2                    ;* TI ARM G3 C/C++ Codegen                                            PC v18.12.2.LTS *
       3                    ;* Date/Time created: Sat Dec 14 17:40:31 2019                                *
       4                    ;******************************************************************************
       5                            .compiler_opts --abi=eabi --arm_vmrs_si_workaround=off --code_state=16 --diag_wrap=off --embed
       6 00000000                   .thumb
       7                    
       8                    $C$DW$CU        .dwtag  DW_TAG_compile_unit
       9                            .dwattr $C$DW$CU, DW_AT_name("../BL_Master.c")
      10                            .dwattr $C$DW$CU, DW_AT_producer("TI TI ARM G3 C/C++ Codegen PC v18.12.2.LTS Copyright (c) 199
      11                            .dwattr $C$DW$CU, DW_AT_TI_version(0x01)
      12                            .dwattr $C$DW$CU, DW_AT_comp_dir("C:\Users\Hp\workspace_v9_TIMSP432\BL_MASTER\Debug")
      13                            .global sanity_check
      14 00000000                   .sect   ".data:sanity_check", RW
      15                            .align  1
      16                            .elfsym sanity_check,SYM_SIZE(8)
      17 00000000           sanity_check:
      18 00000000 00000041          .bits           0x41,8
      19                                            ; sanity_check[0] @ 0
      20 00000000 00005441          .bits           0x54,8
      21                                            ; sanity_check[1] @ 8
      22 00000000 000D5441          .bits           0xd,8
      23                                            ; sanity_check[2] @ 16
      24 00000000 0A0D5441          .bits           0xa,8
      25                                            ; sanity_check[3] @ 24
      26 00000004 00000000          .bits           0,8
      27                                            ; sanity_check[4] @ 32
      28                    
      29                    $C$DW$1 .dwtag  DW_TAG_variable
      30                            .dwattr $C$DW$1, DW_AT_name("sanity_check")
      31                            .dwattr $C$DW$1, DW_AT_TI_symbol_name("sanity_check")
      32                            .dwattr $C$DW$1, DW_AT_location[DW_OP_addr sanity_check]
      33                            .dwattr $C$DW$1, DW_AT_type(*$C$DW$T$381)
      34                            .dwattr $C$DW$1, DW_AT_external
      35                            .dwattr $C$DW$1, DW_AT_decl_file("..\AT_Commands.h")
      36                            .dwattr $C$DW$1, DW_AT_decl_line(0x13)
      37                            .dwattr $C$DW$1, DW_AT_decl_column(0x06)
      38                    
      39                            .global set_master
      40 00000000                   .sect   ".data:set_master", RW
      41                            .align  1
      42                            .elfsym set_master,SYM_SIZE(12)
      43 00000000           set_master:
      44 00000000 00000041          .bits           0x41,8
      45                                            ; set_master[0] @ 0
      46 00000000 00005441          .bits           0x54,8
      47                                            ; set_master[1] @ 8
      48 00000000 002B5441          .bits           0x2b,8
      49                                            ; set_master[2] @ 16
      50 00000000 522B5441          .bits           0x52,8
      51                                            ; set_master[3] @ 24
      52 00000004 0000004F          .bits           0x4f,8
      53                                            ; set_master[4] @ 32
      54 00000004 00004C4F          .bits           0x4c,8
      55                                            ; set_master[5] @ 40
TI ARM Assembler PC v18.12.2 Sat Dec 14 17:40:32 2019

Copyright (c) 1996-2018 Texas Instruments Incorporated
BL_Master.asm                                                        PAGE    2

      56 00000004 00454C4F          .bits           0x45,8
      57                                            ; set_master[6] @ 48
      58 00000004 3D454C4F          .bits           0x3d,8
      59                                            ; set_master[7] @ 56
      60 00000008 00000031          .bits           0x31,8
      61                                            ; set_master[8] @ 64
      62 00000008 00000D31          .bits           0xd,8
      63                                            ; set_master[9] @ 72
      64 00000008 000A0D31          .bits           0xa,8
      65                                            ; set_master[10] @ 80
      66 00000008 000A0D31          .bits           0,8
      67                                            ; set_master[11] @ 88
      68                    
      69                    $C$DW$2 .dwtag  DW_TAG_variable
      70                            .dwattr $C$DW$2, DW_AT_name("set_master")
      71                            .dwattr $C$DW$2, DW_AT_TI_symbol_name("set_master")
      72                            .dwattr $C$DW$2, DW_AT_location[DW_OP_addr set_master]
      73                            .dwattr $C$DW$2, DW_AT_type(*$C$DW$T$382)
      74                            .dwattr $C$DW$2, DW_AT_external
      75                            .dwattr $C$DW$2, DW_AT_decl_file("..\AT_Commands.h")
      76                            .dwattr $C$DW$2, DW_AT_decl_line(0x1a)
      77                            .dwattr $C$DW$2, DW_AT_decl_column(0x06)
      78                    
      79                            .global set_slave
      80 00000000                   .sect   ".data:set_slave", RW
      81                            .align  1
      82                            .elfsym set_slave,SYM_SIZE(12)
      83 00000000           set_slave:
      84 00000000 00000041          .bits           0x41,8
      85                                            ; set_slave[0] @ 0
      86 00000000 00005441          .bits           0x54,8
      87                                            ; set_slave[1] @ 8
      88 00000000 002B5441          .bits           0x2b,8
      89                                            ; set_slave[2] @ 16
      90 00000000 522B5441          .bits           0x52,8
      91                                            ; set_slave[3] @ 24
      92 00000004 0000004F          .bits           0x4f,8
      93                                            ; set_slave[4] @ 32
      94 00000004 00004C4F          .bits           0x4c,8
      95                                            ; set_slave[5] @ 40
      96 00000004 00454C4F          .bits           0x45,8
      97                                            ; set_slave[6] @ 48
      98 00000004 3D454C4F          .bits           0x3d,8
      99                                            ; set_slave[7] @ 56
     100 00000008 00000030          .bits           0x30,8
     101                                            ; set_slave[8] @ 64
     102 00000008 00000D30          .bits           0xd,8
     103                                            ; set_slave[9] @ 72
     104 00000008 000A0D30          .bits           0xa,8
     105                                            ; set_slave[10] @ 80
     106 00000008 000A0D30          .bits           0,8
     107                                            ; set_slave[11] @ 88
     108                    
     109                    $C$DW$3 .dwtag  DW_TAG_variable
     110                            .dwattr $C$DW$3, DW_AT_name("set_slave")
TI ARM Assembler PC v18.12.2 Sat Dec 14 17:40:32 2019

Copyright (c) 1996-2018 Texas Instruments Incorporated
BL_Master.asm                                                        PAGE    3

     111                            .dwattr $C$DW$3, DW_AT_TI_symbol_name("set_slave")
     112                            .dwattr $C$DW$3, DW_AT_location[DW_OP_addr set_slave]
     113                            .dwattr $C$DW$3, DW_AT_type(*$C$DW$T$382)
     114                            .dwattr $C$DW$3, DW_AT_external
     115                            .dwattr $C$DW$3, DW_AT_decl_file("..\AT_Commands.h")
     116                            .dwattr $C$DW$3, DW_AT_decl_line(0x21)
     117                            .dwattr $C$DW$3, DW_AT_decl_column(0x06)
     118                    
     119                            .global IQ_role
     120 00000000                   .sect   ".data:IQ_role", RW
     121                            .align  1
     122                            .elfsym IQ_role,SYM_SIZE(12)
     123 00000000           IQ_role:
     124 00000000 00000041          .bits           0x41,8
     125                                            ; IQ_role[0] @ 0
     126 00000000 00005441          .bits           0x54,8
     127                                            ; IQ_role[1] @ 8
     128 00000000 002B5441          .bits           0x2b,8
     129                                            ; IQ_role[2] @ 16
     130 00000000 522B5441          .bits           0x52,8
     131                                            ; IQ_role[3] @ 24
     132 00000004 0000004F          .bits           0x4f,8
     133                                            ; IQ_role[4] @ 32
     134 00000004 00004C4F          .bits           0x4c,8
     135                                            ; IQ_role[5] @ 40
     136 00000004 00454C4F          .bits           0x45,8
     137                                            ; IQ_role[6] @ 48
     138 00000004 3F454C4F          .bits           0x3f,8
     139                                            ; IQ_role[7] @ 56
     140 00000008 0000000D          .bits           0xd,8
     141                                            ; IQ_role[8] @ 64
     142 00000008 00000A0D          .bits           0xa,8
     143                                            ; IQ_role[9] @ 72
     144 00000008 00000A0D          .bits           0,8
     145                                            ; IQ_role[10] @ 80
     146                    
     147                    $C$DW$4 .dwtag  DW_TAG_variable
     148                            .dwattr $C$DW$4, DW_AT_name("IQ_role")
     149                            .dwattr $C$DW$4, DW_AT_TI_symbol_name("IQ_role")
     150                            .dwattr $C$DW$4, DW_AT_location[DW_OP_addr IQ_role]
     151                            .dwattr $C$DW$4, DW_AT_type(*$C$DW$T$383)
     152                            .dwattr $C$DW$4, DW_AT_external
     153                            .dwattr $C$DW$4, DW_AT_decl_file("..\AT_Commands.h")
     154                            .dwattr $C$DW$4, DW_AT_decl_line(0x2c)
     155                            .dwattr $C$DW$4, DW_AT_decl_column(0x06)
     156                    
     157                            .global set_cmode
     158 00000000                   .sect   ".data:set_cmode", RW
     159                            .align  1
     160                            .elfsym set_cmode,SYM_SIZE(16)
     161 00000000           set_cmode:
     162 00000000 00000041          .bits           0x41,8
     163                                            ; set_cmode[0] @ 0
     164 00000000 00005441          .bits           0x54,8
     165                                            ; set_cmode[1] @ 8
TI ARM Assembler PC v18.12.2 Sat Dec 14 17:40:32 2019

Copyright (c) 1996-2018 Texas Instruments Incorporated
BL_Master.asm                                                        PAGE    4

     166 00000000 002B5441          .bits           0x2b,8
     167                                            ; set_cmode[2] @ 16
     168 00000000 432B5441          .bits           0x43,8
     169                                            ; set_cmode[3] @ 24
     170 00000004 0000004D          .bits           0x4d,8
     171                                            ; set_cmode[4] @ 32
     172 00000004 00004F4D          .bits           0x4f,8
     173                                            ; set_cmode[5] @ 40
     174 00000004 00444F4D          .bits           0x44,8
     175                                            ; set_cmode[6] @ 48
     176 00000004 45444F4D          .bits           0x45,8
     177                                            ; set_cmode[7] @ 56
     178 00000008 0000003D          .bits           0x3d,8
     179                                            ; set_cmode[8] @ 64
     180 00000008 0000303D          .bits           0x30,8
     181                                            ; set_cmode[9] @ 72
     182 00000008 000D303D          .bits           0xd,8
     183                                            ; set_cmode[10] @ 80
     184 00000008 0A0D303D          .bits           0xa,8
     185                                            ; set_cmode[11] @ 88
     186 0000000c 00000000          .bits           0,8
     187                                            ; set_cmode[12] @ 96
     188                    
     189                    $C$DW$5 .dwtag  DW_TAG_variable
     190                            .dwattr $C$DW$5, DW_AT_name("set_cmode")
     191                            .dwattr $C$DW$5, DW_AT_TI_symbol_name("set_cmode")
     192                            .dwattr $C$DW$5, DW_AT_location[DW_OP_addr set_cmode]
     193                            .dwattr $C$DW$5, DW_AT_type(*$C$DW$T$384)
     194                            .dwattr $C$DW$5, DW_AT_external
     195                            .dwattr $C$DW$5, DW_AT_decl_file("..\AT_Commands.h")
     196                            .dwattr $C$DW$5, DW_AT_decl_line(0x34)
     197                            .dwattr $C$DW$5, DW_AT_decl_column(0x06)
     198                    
     199                            .global IQ_cmode
     200 00000000                   .sect   ".data:IQ_cmode", RW
     201                            .align  1
     202                            .elfsym IQ_cmode,SYM_SIZE(12)
     203 00000000           IQ_cmode:
     204 00000000 00000041          .bits           0x41,8
     205                                            ; IQ_cmode[0] @ 0
     206 00000000 00005441          .bits           0x54,8
     207                                            ; IQ_cmode[1] @ 8
     208 00000000 002B5441          .bits           0x2b,8
     209                                            ; IQ_cmode[2] @ 16
     210 00000000 432B5441          .bits           0x43,8
     211                                            ; IQ_cmode[3] @ 24
     212 00000004 0000004D          .bits           0x4d,8
     213                                            ; IQ_cmode[4] @ 32
     214 00000004 00004F4D          .bits           0x4f,8
     215                                            ; IQ_cmode[5] @ 40
     216 00000004 00444F4D          .bits           0x44,8
     217                                            ; IQ_cmode[6] @ 48
     218 00000004 45444F4D          .bits           0x45,8
     219                                            ; IQ_cmode[7] @ 56
     220 00000008 0000003F          .bits           0x3f,8
TI ARM Assembler PC v18.12.2 Sat Dec 14 17:40:32 2019

Copyright (c) 1996-2018 Texas Instruments Incorporated
BL_Master.asm                                                        PAGE    5

     221                                            ; IQ_cmode[8] @ 64
     222 00000008 00000D3F          .bits           0xd,8
     223                                            ; IQ_cmode[9] @ 72
     224 00000008 000A0D3F          .bits           0xa,8
     225                                            ; IQ_cmode[10] @ 80
     226 00000008 000A0D3F          .bits           0,8
     227                                            ; IQ_cmode[11] @ 88
     228                    
     229                    $C$DW$6 .dwtag  DW_TAG_variable
     230                            .dwattr $C$DW$6, DW_AT_name("IQ_cmode")
     231                            .dwattr $C$DW$6, DW_AT_TI_symbol_name("IQ_cmode")
     232                            .dwattr $C$DW$6, DW_AT_location[DW_OP_addr IQ_cmode]
     233                            .dwattr $C$DW$6, DW_AT_type(*$C$DW$T$382)
     234                            .dwattr $C$DW$6, DW_AT_external
     235                            .dwattr $C$DW$6, DW_AT_decl_file("..\AT_Commands.h")
     236                            .dwattr $C$DW$6, DW_AT_decl_line(0x3c)
     237                            .dwattr $C$DW$6, DW_AT_decl_column(0x06)
     238                    
     239                            .global set_binding
     240 00000000                   .sect   ".data:set_binding", RW
     241                            .align  1
     242                            .elfsym set_binding,SYM_SIZE(24)
     243 00000000           set_binding:
     244 00000000 00000041          .bits           0x41,8
     245                                            ; set_binding[0] @ 0
     246 00000000 00005441          .bits           0x54,8
     247                                            ; set_binding[1] @ 8
     248 00000000 002B5441          .bits           0x2b,8
     249                                            ; set_binding[2] @ 16
     250 00000000 422B5441          .bits           0x42,8
     251                                            ; set_binding[3] @ 24
     252 00000004 00000049          .bits           0x49,8
     253                                            ; set_binding[4] @ 32
     254 00000004 00004E49          .bits           0x4e,8
     255                                            ; set_binding[5] @ 40
     256 00000004 00444E49          .bits           0x44,8
     257                                            ; set_binding[6] @ 48
     258 00000004 3D444E49          .bits           0x3d,8
     259                                            ; set_binding[7] @ 56
     260 00000008 00000031          .bits           0x31,8
     261                                            ; set_binding[8] @ 64
     262 00000008 00003431          .bits           0x34,8
     263                                            ; set_binding[9] @ 72
     264 00000008 002C3431          .bits           0x2c,8
     265                                            ; set_binding[10] @ 80
     266 00000008 332C3431          .bits           0x33,8
     267                                            ; set_binding[11] @ 88
     268 0000000c 0000002C          .bits           0x2c,8
     269                                            ; set_binding[12] @ 96
     270 0000000c 0000362C          .bits           0x36,8
     271                                            ; set_binding[13] @ 104
     272 0000000c 0032362C          .bits           0x32,8
     273                                            ; set_binding[14] @ 112
     274 0000000c 3032362C          .bits           0x30,8
     275                                            ; set_binding[15] @ 120
TI ARM Assembler PC v18.12.2 Sat Dec 14 17:40:32 2019

Copyright (c) 1996-2018 Texas Instruments Incorporated
BL_Master.asm                                                        PAGE    6

     276 00000010 00000031          .bits           0x31,8
     277                                            ; set_binding[16] @ 128
     278 00000010 00003231          .bits           0x32,8
     279                                            ; set_binding[17] @ 136
     280 00000010 000D3231          .bits           0xd,8
     281                                            ; set_binding[18] @ 144
     282 00000010 0A0D3231          .bits           0xa,8
     283                                            ; set_binding[19] @ 152
     284 00000014 00000000          .bits           0,8
     285                                            ; set_binding[20] @ 160
     286                    
     287                    $C$DW$7 .dwtag  DW_TAG_variable
     288                            .dwattr $C$DW$7, DW_AT_name("set_binding")
     289                            .dwattr $C$DW$7, DW_AT_TI_symbol_name("set_binding")
     290                            .dwattr $C$DW$7, DW_AT_location[DW_OP_addr set_binding]
     291                            .dwattr $C$DW$7, DW_AT_type(*$C$DW$T$385)
     292                            .dwattr $C$DW$7, DW_AT_external
     293                            .dwattr $C$DW$7, DW_AT_decl_file("..\AT_Commands.h")
     294                            .dwattr $C$DW$7, DW_AT_decl_line(0x45)
     295                            .dwattr $C$DW$7, DW_AT_decl_column(0x06)
     296                    
     297                            .global IQ_binding
     298 00000000                   .sect   ".data:IQ_binding", RW
     299                            .align  1
     300                            .elfsym IQ_binding,SYM_SIZE(12)
     301 00000000           IQ_binding:
     302 00000000 00000041          .bits           0x41,8
     303                                            ; IQ_binding[0] @ 0
     304 00000000 00005441          .bits           0x54,8
     305                                            ; IQ_binding[1] @ 8
     306 00000000 002B5441          .bits           0x2b,8
     307                                            ; IQ_binding[2] @ 16
     308 00000000 422B5441          .bits           0x42,8
     309                                            ; IQ_binding[3] @ 24
     310 00000004 00000049          .bits           0x49,8
     311                                            ; IQ_binding[4] @ 32
     312 00000004 00004E49          .bits           0x4e,8
     313                                            ; IQ_binding[5] @ 40
     314 00000004 00444E49          .bits           0x44,8
     315                                            ; IQ_binding[6] @ 48
     316 00000004 3F444E49          .bits           0x3f,8
     317                                            ; IQ_binding[7] @ 56
     318 00000008 0000000D          .bits           0xd,8
     319                                            ; IQ_binding[8] @ 64
     320 00000008 00000A0D          .bits           0xa,8
     321                                            ; IQ_binding[9] @ 72
     322 00000008 00000A0D          .bits           0,8
     323                                            ; IQ_binding[10] @ 80
     324                    
     325                    $C$DW$8 .dwtag  DW_TAG_variable
     326                            .dwattr $C$DW$8, DW_AT_name("IQ_binding")
     327                            .dwattr $C$DW$8, DW_AT_TI_symbol_name("IQ_binding")
     328                            .dwattr $C$DW$8, DW_AT_location[DW_OP_addr IQ_binding]
     329                            .dwattr $C$DW$8, DW_AT_type(*$C$DW$T$383)
     330                            .dwattr $C$DW$8, DW_AT_external
TI ARM Assembler PC v18.12.2 Sat Dec 14 17:40:32 2019

Copyright (c) 1996-2018 Texas Instruments Incorporated
BL_Master.asm                                                        PAGE    7

     331                            .dwattr $C$DW$8, DW_AT_decl_file("..\AT_Commands.h")
     332                            .dwattr $C$DW$8, DW_AT_decl_line(0x4c)
     333                            .dwattr $C$DW$8, DW_AT_decl_column(0x06)
     334                    
     335                            .global IQ_address
     336 00000000                   .sect   ".data:IQ_address", RW
     337                            .align  1
     338                            .elfsym IQ_address,SYM_SIZE(12)
     339 00000000           IQ_address:
     340 00000000 00000041          .bits           0x41,8
     341                                            ; IQ_address[0] @ 0
     342 00000000 00005441          .bits           0x54,8
     343                                            ; IQ_address[1] @ 8
     344 00000000 002B5441          .bits           0x2b,8
     345                                            ; IQ_address[2] @ 16
     346 00000000 412B5441          .bits           0x41,8
     347                                            ; IQ_address[3] @ 24
     348 00000004 00000044          .bits           0x44,8
     349                                            ; IQ_address[4] @ 32
     350 00000004 00004444          .bits           0x44,8
     351                                            ; IQ_address[5] @ 40
     352 00000004 00524444          .bits           0x52,8
     353                                            ; IQ_address[6] @ 48
     354 00000004 3F524444          .bits           0x3f,8
     355                                            ; IQ_address[7] @ 56
     356 00000008 0000000D          .bits           0xd,8
     357                                            ; IQ_address[8] @ 64
     358 00000008 00000A0D          .bits           0xa,8
     359                                            ; IQ_address[9] @ 72
     360 00000008 00000A0D          .bits           0,8
     361                                            ; IQ_address[10] @ 80
     362                    
     363                    $C$DW$9 .dwtag  DW_TAG_variable
     364                            .dwattr $C$DW$9, DW_AT_name("IQ_address")
     365                            .dwattr $C$DW$9, DW_AT_TI_symbol_name("IQ_address")
     366                            .dwattr $C$DW$9, DW_AT_location[DW_OP_addr IQ_address]
     367                            .dwattr $C$DW$9, DW_AT_type(*$C$DW$T$383)
     368                            .dwattr $C$DW$9, DW_AT_external
     369                            .dwattr $C$DW$9, DW_AT_decl_file("..\AT_Commands.h")
     370                            .dwattr $C$DW$9, DW_AT_decl_line(0x53)
     371                            .dwattr $C$DW$9, DW_AT_decl_column(0x06)
     372                    
     373                            .global Set_uart
     374 00000000                   .sect   ".data:Set_uart", RW
     375                            .align  1
     376                            .elfsym Set_uart,SYM_SIZE(20)
     377 00000000           Set_uart:
     378 00000000 00000041          .bits           0x41,8
     379                                            ; Set_uart[0] @ 0
     380 00000000 00005441          .bits           0x54,8
     381                                            ; Set_uart[1] @ 8
     382 00000000 002B5441          .bits           0x2b,8
     383                                            ; Set_uart[2] @ 16
     384 00000000 552B5441          .bits           0x55,8
     385                                            ; Set_uart[3] @ 24
TI ARM Assembler PC v18.12.2 Sat Dec 14 17:40:32 2019

Copyright (c) 1996-2018 Texas Instruments Incorporated
BL_Master.asm                                                        PAGE    8

     386 00000004 00000041          .bits           0x41,8
     387                                            ; Set_uart[4] @ 32
     388 00000004 00005241          .bits           0x52,8
     389                                            ; Set_uart[5] @ 40
     390 00000004 00545241          .bits           0x54,8
     391                                            ; Set_uart[6] @ 48
     392 00000004 3D545241          .bits           0x3d,8
     393                                            ; Set_uart[7] @ 56
     394 00000008 00000033          .bits           0x33,8
     395                                            ; Set_uart[8] @ 64
     396 00000008 00003833          .bits           0x38,8
     397                                            ; Set_uart[9] @ 72
     398 00000008 00343833          .bits           0x34,8
     399                                            ; Set_uart[10] @ 80
     400 00000008 30343833          .bits           0x30,8
     401                                            ; Set_uart[11] @ 88
     402 0000000c 00000030          .bits           0x30,8
     403                                            ; Set_uart[12] @ 96
     404 0000000c 00002C30          .bits           0x2c,8
     405                                            ; Set_uart[13] @ 104
     406 0000000c 00302C30          .bits           0x30,8
     407                                            ; Set_uart[14] @ 112
     408 0000000c 2C302C30          .bits           0x2c,8
     409                                            ; Set_uart[15] @ 120
     410 00000010 00000030          .bits           0x30,8
     411                                            ; Set_uart[16] @ 128
     412 00000010 00000D30          .bits           0xd,8
     413                                            ; Set_uart[17] @ 136
     414 00000010 000A0D30          .bits           0xa,8
     415                                            ; Set_uart[18] @ 144
     416 00000010 000A0D30          .bits           0,8
     417                                            ; Set_uart[19] @ 152
     418                    
     419                    $C$DW$10        .dwtag  DW_TAG_variable
     420                            .dwattr $C$DW$10, DW_AT_name("Set_uart")
     421                            .dwattr $C$DW$10, DW_AT_TI_symbol_name("Set_uart")
     422                            .dwattr $C$DW$10, DW_AT_location[DW_OP_addr Set_uart]
     423                            .dwattr $C$DW$10, DW_AT_type(*$C$DW$T$386)
     424                            .dwattr $C$DW$10, DW_AT_external
     425                            .dwattr $C$DW$10, DW_AT_decl_file("..\AT_Commands.h")
     426                            .dwattr $C$DW$10, DW_AT_decl_line(0x5c)
     427                            .dwattr $C$DW$10, DW_AT_decl_column(0x06)
     428                    
     429                            .global IQ_uart
     430 00000000                   .sect   ".data:IQ_uart", RW
     431                            .align  1
     432                            .elfsym IQ_uart,SYM_SIZE(12)
     433 00000000           IQ_uart:
     434 00000000 00000041          .bits           0x41,8
     435                                            ; IQ_uart[0] @ 0
     436 00000000 00005441          .bits           0x54,8
     437                                            ; IQ_uart[1] @ 8
     438 00000000 002B5441          .bits           0x2b,8
     439                                            ; IQ_uart[2] @ 16
     440 00000000 552B5441          .bits           0x55,8
TI ARM Assembler PC v18.12.2 Sat Dec 14 17:40:32 2019

Copyright (c) 1996-2018 Texas Instruments Incorporated
BL_Master.asm                                                        PAGE    9

     441                                            ; IQ_uart[3] @ 24
     442 00000004 00000041          .bits           0x41,8
     443                                            ; IQ_uart[4] @ 32
     444 00000004 00005241          .bits           0x52,8
     445                                            ; IQ_uart[5] @ 40
     446 00000004 00545241          .bits           0x54,8
     447                                            ; IQ_uart[6] @ 48
     448 00000004 3F545241          .bits           0x3f,8
     449                                            ; IQ_uart[7] @ 56
     450 00000008 0000000D          .bits           0xd,8
     451                                            ; IQ_uart[8] @ 64
     452 00000008 00000A0D          .bits           0xa,8
     453                                            ; IQ_uart[9] @ 72
     454 00000008 00000A0D          .bits           0,8
     455                                            ; IQ_uart[10] @ 80
     456                    
     457                    $C$DW$11        .dwtag  DW_TAG_variable
     458                            .dwattr $C$DW$11, DW_AT_name("IQ_uart")
     459                            .dwattr $C$DW$11, DW_AT_TI_symbol_name("IQ_uart")
     460                            .dwattr $C$DW$11, DW_AT_location[DW_OP_addr IQ_uart]
     461                            .dwattr $C$DW$11, DW_AT_type(*$C$DW$T$383)
     462                            .dwattr $C$DW$11, DW_AT_external
     463                            .dwattr $C$DW$11, DW_AT_decl_file("..\AT_Commands.h")
     464                            .dwattr $C$DW$11, DW_AT_decl_line(0x63)
     465                            .dwattr $C$DW$11, DW_AT_decl_column(0x06)
     466                    
     467                            .global IQ_state
     468 00000000                   .sect   ".data:IQ_state", RW
     469                            .align  1
     470                            .elfsym IQ_state,SYM_SIZE(12)
     471 00000000           IQ_state:
     472 00000000 00000041          .bits           0x41,8
     473                                            ; IQ_state[0] @ 0
     474 00000000 00005441          .bits           0x54,8
     475                                            ; IQ_state[1] @ 8
     476 00000000 002B5441          .bits           0x2b,8
     477                                            ; IQ_state[2] @ 16
     478 00000000 532B5441          .bits           0x53,8
     479                                            ; IQ_state[3] @ 24
     480 00000004 00000054          .bits           0x54,8
     481                                            ; IQ_state[4] @ 32
     482 00000004 00004154          .bits           0x41,8
     483                                            ; IQ_state[5] @ 40
     484 00000004 00544154          .bits           0x54,8
     485                                            ; IQ_state[6] @ 48
     486 00000004 45544154          .bits           0x45,8
     487                                            ; IQ_state[7] @ 56
     488 00000008 0000003F          .bits           0x3f,8
     489                                            ; IQ_state[8] @ 64
     490 00000008 00000D3F          .bits           0xd,8
     491                                            ; IQ_state[9] @ 72
     492 00000008 000A0D3F          .bits           0xa,8
     493                                            ; IQ_state[10] @ 80
     494 00000008 000A0D3F          .bits           0,8
     495                                            ; IQ_state[11] @ 88
TI ARM Assembler PC v18.12.2 Sat Dec 14 17:40:32 2019

Copyright (c) 1996-2018 Texas Instruments Incorporated
BL_Master.asm                                                        PAGE   10

     496                    
     497                    $C$DW$12        .dwtag  DW_TAG_variable
     498                            .dwattr $C$DW$12, DW_AT_name("IQ_state")
     499                            .dwattr $C$DW$12, DW_AT_TI_symbol_name("IQ_state")
     500                            .dwattr $C$DW$12, DW_AT_location[DW_OP_addr IQ_state]
     501                            .dwattr $C$DW$12, DW_AT_type(*$C$DW$T$382)
     502                            .dwattr $C$DW$12, DW_AT_external
     503                            .dwattr $C$DW$12, DW_AT_decl_file("..\AT_Commands.h")
     504                            .dwattr $C$DW$12, DW_AT_decl_line(0x72)
     505                            .dwattr $C$DW$12, DW_AT_decl_column(0x06)
     506                    
     507                            .global set_pair
     508 00000000                   .sect   ".data:set_pair", RW
     509                            .align  1
     510                            .elfsym set_pair,SYM_SIZE(36)
     511 00000000           set_pair:
     512 00000000 00000041          .bits           0x41,8
     513                                            ; set_pair[0] @ 0
     514 00000000 00005441          .bits           0x54,8
     515                                            ; set_pair[1] @ 8
     516 00000000 002B5441          .bits           0x2b,8
     517                                            ; set_pair[2] @ 16
     518 00000000 502B5441          .bits           0x50,8
     519                                            ; set_pair[3] @ 24
     520 00000004 00000041          .bits           0x41,8
     521                                            ; set_pair[4] @ 32
     522 00000004 00004941          .bits           0x49,8
     523                                            ; set_pair[5] @ 40
     524 00000004 00524941          .bits           0x52,8
     525                                            ; set_pair[6] @ 48
     526 00000004 3D524941          .bits           0x3d,8
     527                                            ; set_pair[7] @ 56
     528 00000008 00000041          .bits           0x41,8
     529                                            ; set_pair[8] @ 64
     530 00000008 00004441          .bits           0x44,8
     531                                            ; set_pair[9] @ 72
     532 00000008 00444441          .bits           0x44,8
     533                                            ; set_pair[10] @ 80
     534 00000008 52444441          .bits           0x52,8
     535                                            ; set_pair[11] @ 88
     536 0000000c 00000045          .bits           0x45,8
     537                                            ; set_pair[12] @ 96
     538 0000000c 00005345          .bits           0x53,8
     539                                            ; set_pair[13] @ 104
     540 0000000c 00535345          .bits           0x53,8
     541                                            ; set_pair[14] @ 112
     542 0000000c 2C535345          .bits           0x2c,8
     543                                            ; set_pair[15] @ 120
     544 00000010 00000054          .bits           0x54,8
     545                                            ; set_pair[16] @ 128
     546 00000010 00004954          .bits           0x49,8
     547                                            ; set_pair[17] @ 136
     548 00000010 004D4954          .bits           0x4d,8
     549                                            ; set_pair[18] @ 144
     550 00000010 454D4954          .bits           0x45,8
TI ARM Assembler PC v18.12.2 Sat Dec 14 17:40:32 2019

Copyright (c) 1996-2018 Texas Instruments Incorporated
BL_Master.asm                                                        PAGE   11

     551                                            ; set_pair[19] @ 152
     552 00000014 00000020          .bits           0x20,8
     553                                            ; set_pair[20] @ 160
     554 00000014 00006920          .bits           0x69,8
     555                                            ; set_pair[21] @ 168
     556 00000014 006E6920          .bits           0x6e,8
     557                                            ; set_pair[22] @ 176
     558 00000014 206E6920          .bits           0x20,8
     559                                            ; set_pair[23] @ 184
     560 00000018 00000053          .bits           0x53,8
     561                                            ; set_pair[24] @ 192
     562 00000018 00004553          .bits           0x45,8
     563                                            ; set_pair[25] @ 200
     564 00000018 00434553          .bits           0x43,8
     565                                            ; set_pair[26] @ 208
     566 00000018 4F434553          .bits           0x4f,8
     567                                            ; set_pair[27] @ 216
     568 0000001c 0000004E          .bits           0x4e,8
     569                                            ; set_pair[28] @ 224
     570 0000001c 0000444E          .bits           0x44,8
     571                                            ; set_pair[29] @ 232
     572 0000001c 0053444E          .bits           0x53,8
     573                                            ; set_pair[30] @ 240
     574 0000001c 0D53444E          .bits           0xd,8
     575                                            ; set_pair[31] @ 248
     576 00000020 0000000A          .bits           0xa,8
     577                                            ; set_pair[32] @ 256
     578 00000020 0000000A          .bits           0,8
     579                                            ; set_pair[33] @ 264
     580                    
     581                    $C$DW$13        .dwtag  DW_TAG_variable
     582                            .dwattr $C$DW$13, DW_AT_name("set_pair")
     583                            .dwattr $C$DW$13, DW_AT_TI_symbol_name("set_pair")
     584                            .dwattr $C$DW$13, DW_AT_location[DW_OP_addr set_pair]
     585                            .dwattr $C$DW$13, DW_AT_type(*$C$DW$T$387)
     586                            .dwattr $C$DW$13, DW_AT_external
     587                            .dwattr $C$DW$13, DW_AT_decl_file("..\AT_Commands.h")
     588                            .dwattr $C$DW$13, DW_AT_decl_line(0x7a)
     589                            .dwattr $C$DW$13, DW_AT_decl_column(0x06)
     590                    
     591                            .global set_reset
     592 00000000                   .sect   ".data:set_reset", RW
     593                            .align  1
     594                            .elfsym set_reset,SYM_SIZE(12)
     595 00000000           set_reset:
     596 00000000 00000041          .bits           0x41,8
     597                                            ; set_reset[0] @ 0
     598 00000000 00005441          .bits           0x54,8
     599                                            ; set_reset[1] @ 8
     600 00000000 002B5441          .bits           0x2b,8
     601                                            ; set_reset[2] @ 16
     602 00000000 4F2B5441          .bits           0x4f,8
     603                                            ; set_reset[3] @ 24
     604 00000004 00000052          .bits           0x52,8
     605                                            ; set_reset[4] @ 32
TI ARM Assembler PC v18.12.2 Sat Dec 14 17:40:32 2019

Copyright (c) 1996-2018 Texas Instruments Incorporated
BL_Master.asm                                                        PAGE   12

     606 00000004 00004752          .bits           0x47,8
     607                                            ; set_reset[5] @ 40
     608 00000004 004C4752          .bits           0x4c,8
     609                                            ; set_reset[6] @ 48
     610 00000004 0D4C4752          .bits           0xd,8
     611                                            ; set_reset[7] @ 56
     612 00000008 0000000A          .bits           0xa,8
     613                                            ; set_reset[8] @ 64
     614 00000008 0000000A          .bits           0,8
     615                                            ; set_reset[9] @ 72
     616                    
     617                    $C$DW$14        .dwtag  DW_TAG_variable
     618                            .dwattr $C$DW$14, DW_AT_name("set_reset")
     619                            .dwattr $C$DW$14, DW_AT_TI_symbol_name("set_reset")
     620                            .dwattr $C$DW$14, DW_AT_location[DW_OP_addr set_reset]
     621                            .dwattr $C$DW$14, DW_AT_type(*$C$DW$T$388)
     622                            .dwattr $C$DW$14, DW_AT_external
     623                            .dwattr $C$DW$14, DW_AT_decl_file("..\AT_Commands.h")
     624                            .dwattr $C$DW$14, DW_AT_decl_line(0x82)
     625                            .dwattr $C$DW$14, DW_AT_decl_column(0x06)
     626                    
     627                            .global system_state_data
     628 00000000                   .sect   ".data:system_state_data", RW
     629                            .align  1
     630                            .elfsym system_state_data,SYM_SIZE(11)
     631 00000000           system_state_data:
     632 00000000 00000000          .bits           0,8
     633                                            ; system_state_data.reception_ready @ 0
     634 00000000 00000000          .bits           0,8
     635                                            ; system_state_data.error_flag @ 8
     636 00000000 00000000          .bits           0,8
     637                                            ; system_state_data.button_pressed @ 16
     638 00000000 00000000          .bits           0,8
     639                                            ; system_state_data.PC_RX_Flag @ 24
     640 00000004 00000000          .bits           0,8
     641                                            ; system_state_data.Checksum_Failure @ 32
     642 00000004 00000000          .bits           0,8
     643                                            ; system_state_data.CRC_Failure @ 40
     644 00000004 00000000          .bits           0,8
     645                                            ; system_state_data.RX_Complete @ 48
     646 00000004 00000000          .bits           0,8
     647                                            ; system_state_data.response @ 56
     648 00000008 00000000          .bits           0,8
     649                                            ; system_state_data.RX_Response @ 64
     650 00000008 00000000          .bits           0,8
     651                                            ; system_state_data.TX_Flag @ 72
     652 00000008 00000000          .bits           0,8
     653                                            ; system_state_data.All_Ok @ 80
     654                    
     655                    $C$DW$15        .dwtag  DW_TAG_variable
     656                            .dwattr $C$DW$15, DW_AT_name("system_state_data")
     657                            .dwattr $C$DW$15, DW_AT_TI_symbol_name("system_state_data")
     658                            .dwattr $C$DW$15, DW_AT_location[DW_OP_addr system_state_data]
     659                            .dwattr $C$DW$15, DW_AT_type(*$C$DW$T$199)
     660                            .dwattr $C$DW$15, DW_AT_external
TI ARM Assembler PC v18.12.2 Sat Dec 14 17:40:32 2019

Copyright (c) 1996-2018 Texas Instruments Incorporated
BL_Master.asm                                                        PAGE   13

     661                            .dwattr $C$DW$15, DW_AT_decl_file("../BL_Master.c")
     662                            .dwattr $C$DW$15, DW_AT_decl_line(0x13)
     663                            .dwattr $C$DW$15, DW_AT_decl_column(0x15)
     664                    
     665                            .global system_state
     666 00000000                   .data
     667                            .align  4
     668                            .elfsym system_state,SYM_SIZE(4)
     669 00000000           system_state:
     670 00000000 00000000!         .bits   system_state_data,32            ; system_state @ 0
     671                    
     672                    $C$DW$16        .dwtag  DW_TAG_variable
     673                            .dwattr $C$DW$16, DW_AT_name("system_state")
     674                            .dwattr $C$DW$16, DW_AT_TI_symbol_name("system_state")
     675                            .dwattr $C$DW$16, DW_AT_location[DW_OP_addr system_state]
     676                            .dwattr $C$DW$16, DW_AT_type(*$C$DW$T$200)
     677                            .dwattr $C$DW$16, DW_AT_external
     678                            .dwattr $C$DW$16, DW_AT_decl_file("../BL_Master.c")
     679                            .dwattr $C$DW$16, DW_AT_decl_line(0x15)
     680                            .dwattr $C$DW$16, DW_AT_decl_column(0x16)
     681                    
     682                            .global state_machine
     683 00000004                   .data
     684                            .align  4
     685                            .elfsym state_machine,SYM_SIZE(4)
     686 00000004           state_machine:
     687 00000004 00000000          .bits           0,32
     688                                            ; state_machine @ 0
     689                    
     690                    $C$DW$17        .dwtag  DW_TAG_variable
     691                            .dwattr $C$DW$17, DW_AT_name("state_machine")
     692                            .dwattr $C$DW$17, DW_AT_TI_symbol_name("state_machine")
     693                            .dwattr $C$DW$17, DW_AT_location[DW_OP_addr state_machine]
     694                            .dwattr $C$DW$17, DW_AT_type(*$C$DW$T$196)
     695                            .dwattr $C$DW$17, DW_AT_external
     696                            .dwattr $C$DW$17, DW_AT_decl_file("../BL_Master.c")
     697                            .dwattr $C$DW$17, DW_AT_decl_line(0x17)
     698                            .dwattr $C$DW$17, DW_AT_decl_column(0x12)
     699                    
     700                            .global CRC_Flag
     701 00000008                   .data
     702                            .align  1
     703                            .elfsym CRC_Flag,SYM_SIZE(1)
     704 00000008           CRC_Flag:
     705 00000008 00000000          .bits           0,8
     706                                            ; CRC_Flag @ 0
     707                    
     708                    $C$DW$18        .dwtag  DW_TAG_variable
     709                            .dwattr $C$DW$18, DW_AT_name("CRC_Flag")
     710                            .dwattr $C$DW$18, DW_AT_TI_symbol_name("CRC_Flag")
     711                            .dwattr $C$DW$18, DW_AT_location[DW_OP_addr CRC_Flag]
     712                            .dwattr $C$DW$18, DW_AT_type(*$C$DW$T$44)
     713                            .dwattr $C$DW$18, DW_AT_external
     714                            .dwattr $C$DW$18, DW_AT_decl_file("../BL_Master.c")
     715                            .dwattr $C$DW$18, DW_AT_decl_line(0x19)
TI ARM Assembler PC v18.12.2 Sat Dec 14 17:40:32 2019

Copyright (c) 1996-2018 Texas Instruments Incorporated
BL_Master.asm                                                        PAGE   14

     716                            .dwattr $C$DW$18, DW_AT_decl_column(0x12)
     717                    
     718                            .global TXN_Flag
     719 00000009                   .data
     720                            .align  1
     721                            .elfsym TXN_Flag,SYM_SIZE(1)
     722 00000009           TXN_Flag:
     723 00000008 00000000          .bits           0,8
     724                                            ; TXN_Flag @ 0
     725                    
     726                    $C$DW$19        .dwtag  DW_TAG_variable
     727                            .dwattr $C$DW$19, DW_AT_name("TXN_Flag")
     728                            .dwattr $C$DW$19, DW_AT_TI_symbol_name("TXN_Flag")
     729                            .dwattr $C$DW$19, DW_AT_location[DW_OP_addr TXN_Flag]
     730                            .dwattr $C$DW$19, DW_AT_type(*$C$DW$T$44)
     731                            .dwattr $C$DW$19, DW_AT_external
     732                            .dwattr $C$DW$19, DW_AT_decl_file("../BL_Master.c")
     733                            .dwattr $C$DW$19, DW_AT_decl_line(0x1a)
     734                            .dwattr $C$DW$19, DW_AT_decl_column(0x12)
     735                    
     736                            .global Start_Flag
     737 0000000a                   .data
     738                            .align  1
     739                            .elfsym Start_Flag,SYM_SIZE(1)
     740 0000000a           Start_Flag:
     741 00000008 00000000          .bits           0,8
     742                                            ; Start_Flag @ 0
     743                    
     744                    $C$DW$20        .dwtag  DW_TAG_variable
     745                            .dwattr $C$DW$20, DW_AT_name("Start_Flag")
     746                            .dwattr $C$DW$20, DW_AT_TI_symbol_name("Start_Flag")
     747                            .dwattr $C$DW$20, DW_AT_location[DW_OP_addr Start_Flag]
     748                            .dwattr $C$DW$20, DW_AT_type(*$C$DW$T$44)
     749                            .dwattr $C$DW$20, DW_AT_external
     750                            .dwattr $C$DW$20, DW_AT_decl_file("../BL_Master.c")
     751                            .dwattr $C$DW$20, DW_AT_decl_line(0x1b)
     752                            .dwattr $C$DW$20, DW_AT_decl_column(0x12)
     753                    
     754                            .global buffer
     755                            .common buffer,8400,1
     756                    $C$DW$21        .dwtag  DW_TAG_variable
     757                            .dwattr $C$DW$21, DW_AT_name("buffer")
     758                            .dwattr $C$DW$21, DW_AT_TI_symbol_name("buffer")
     759                            .dwattr $C$DW$21, DW_AT_location[DW_OP_addr buffer]
     760                            .dwattr $C$DW$21, DW_AT_type(*$C$DW$T$274)
     761                            .dwattr $C$DW$21, DW_AT_external
     762                            .dwattr $C$DW$21, DW_AT_decl_file("../BL_Master.c")
     763                            .dwattr $C$DW$21, DW_AT_decl_line(0x1c)
     764                            .dwattr $C$DW$21, DW_AT_decl_column(0x12)
     765                    
     766                            .global ISR_index
     767 0000000b                   .data
     768                            .align  2
     769                            .elfsym ISR_index,SYM_SIZE(2)
     770 0000000c           ISR_index:
TI ARM Assembler PC v18.12.2 Sat Dec 14 17:40:32 2019

Copyright (c) 1996-2018 Texas Instruments Incorporated
BL_Master.asm                                                        PAGE   15

     771 0000000c 00000000          .bits           0,16
     772                                            ; ISR_index @ 0
     773                    
     774                    $C$DW$22        .dwtag  DW_TAG_variable
     775                            .dwattr $C$DW$22, DW_AT_name("ISR_index")
     776                            .dwattr $C$DW$22, DW_AT_TI_symbol_name("ISR_index")
     777                            .dwattr $C$DW$22, DW_AT_location[DW_OP_addr ISR_index]
     778                            .dwattr $C$DW$22, DW_AT_type(*$C$DW$T$34)
     779                            .dwattr $C$DW$22, DW_AT_external
     780                            .dwattr $C$DW$22, DW_AT_decl_file("../BL_Master.c")
     781                            .dwattr $C$DW$22, DW_AT_decl_line(0x1d)
     782                            .dwattr $C$DW$22, DW_AT_decl_column(0x13)
     783                    
     784                            .global CRC_index
     785 0000000e                   .data
     786                            .align  2
     787                            .elfsym CRC_index,SYM_SIZE(2)
     788 0000000e           CRC_index:
     789 0000000c 00000000          .bits           0,16
     790                                            ; CRC_index @ 0
     791                    
     792                    $C$DW$23        .dwtag  DW_TAG_variable
     793                            .dwattr $C$DW$23, DW_AT_name("CRC_index")
     794                            .dwattr $C$DW$23, DW_AT_TI_symbol_name("CRC_index")
     795                            .dwattr $C$DW$23, DW_AT_location[DW_OP_addr CRC_index]
     796                            .dwattr $C$DW$23, DW_AT_type(*$C$DW$T$34)
     797                            .dwattr $C$DW$23, DW_AT_external
     798                            .dwattr $C$DW$23, DW_AT_decl_file("../BL_Master.c")
     799                            .dwattr $C$DW$23, DW_AT_decl_line(0x1e)
     800                            .dwattr $C$DW$23, DW_AT_decl_column(0x13)
     801                    
     802                            .global CRC_result
     803 00000010                   .data
     804                            .align  2
     805                            .elfsym CRC_result,SYM_SIZE(2)
     806 00000010           CRC_result:
     807 00000010 00000000          .bits           0,16
     808                                            ; CRC_result @ 0
     809                    
     810                    $C$DW$24        .dwtag  DW_TAG_variable
     811                            .dwattr $C$DW$24, DW_AT_name("CRC_result")
     812                            .dwattr $C$DW$24, DW_AT_TI_symbol_name("CRC_result")
     813                            .dwattr $C$DW$24, DW_AT_location[DW_OP_addr CRC_result]
     814                            .dwattr $C$DW$24, DW_AT_type(*$C$DW$T$32)
     815                            .dwattr $C$DW$24, DW_AT_external
     816                            .dwattr $C$DW$24, DW_AT_decl_file("../BL_Master.c")
     817                            .dwattr $C$DW$24, DW_AT_decl_line(0x1f)
     818                            .dwattr $C$DW$24, DW_AT_decl_column(0x0a)
     819                    
     820                    
     821                    $C$DW$25        .dwtag  DW_TAG_subprogram
     822                            .dwattr $C$DW$25, DW_AT_name("UART0_Init")
     823                            .dwattr $C$DW$25, DW_AT_TI_symbol_name("UART0_Init")
     824                            .dwattr $C$DW$25, DW_AT_declaration
     825                            .dwattr $C$DW$25, DW_AT_external
TI ARM Assembler PC v18.12.2 Sat Dec 14 17:40:32 2019

Copyright (c) 1996-2018 Texas Instruments Incorporated
BL_Master.asm                                                        PAGE   16

     826                            .dwattr $C$DW$25, DW_AT_decl_file("..\UART.h")
     827                            .dwattr $C$DW$25, DW_AT_decl_line(0x16)
     828                            .dwattr $C$DW$25, DW_AT_decl_column(0x06)
     829                            .dwendtag $C$DW$25
     830                    
     831                    
     832                    $C$DW$26        .dwtag  DW_TAG_subprogram
     833                            .dwattr $C$DW$26, DW_AT_name("UART2_Init")
     834                            .dwattr $C$DW$26, DW_AT_TI_symbol_name("UART2_Init")
     835                            .dwattr $C$DW$26, DW_AT_declaration
     836                            .dwattr $C$DW$26, DW_AT_external
     837                            .dwattr $C$DW$26, DW_AT_decl_file("..\UART.h")
     838                            .dwattr $C$DW$26, DW_AT_decl_line(0x15)
     839                            .dwattr $C$DW$26, DW_AT_decl_column(0x06)
     840                            .dwendtag $C$DW$26
     841                    
     842                    
     843                    $C$DW$27        .dwtag  DW_TAG_subprogram
     844                            .dwattr $C$DW$27, DW_AT_name("State_Machine_Init")
     845                            .dwattr $C$DW$27, DW_AT_TI_symbol_name("State_Machine_Init")
     846                            .dwattr $C$DW$27, DW_AT_type(*$C$DW$T$196)
     847                            .dwattr $C$DW$27, DW_AT_declaration
     848                            .dwattr $C$DW$27, DW_AT_external
     849                            .dwattr $C$DW$27, DW_AT_decl_file("..\state_machine.h")
     850                            .dwattr $C$DW$27, DW_AT_decl_line(0x44)
     851                            .dwattr $C$DW$27, DW_AT_decl_column(0x12)
     852                            .dwendtag $C$DW$27
     853                    
     854                    
     855                    $C$DW$28        .dwtag  DW_TAG_subprogram
     856                            .dwattr $C$DW$28, DW_AT_name("Event_Handler")
     857                            .dwattr $C$DW$28, DW_AT_TI_symbol_name("Event_Handler")
     858                            .dwattr $C$DW$28, DW_AT_declaration
     859                            .dwattr $C$DW$28, DW_AT_external
     860                            .dwattr $C$DW$28, DW_AT_decl_file("..\state_machine.h")
     861                            .dwattr $C$DW$28, DW_AT_decl_line(0x48)
     862                            .dwattr $C$DW$28, DW_AT_decl_column(0x06)
     863                    $C$DW$29        .dwtag  DW_TAG_formal_parameter
     864                            .dwattr $C$DW$29, DW_AT_type(*$C$DW$T$196)
     865                    
     866                    $C$DW$30        .dwtag  DW_TAG_formal_parameter
     867                            .dwattr $C$DW$30, DW_AT_type(*$C$DW$T$200)
     868                    
     869                            .dwendtag $C$DW$28
     870                    
     871                    ;       C:\ti\ccs910\ccs\tools\compiler\ti-cgt-arm_18.12.2.LTS\bin\armacpia.exe -@C:\\Users\\Hp\\AppDa
     872 00000000                   .sect   ".text:main"
     873                            .clink
     874                            .thumbfunc main
     875 00000000                   .thumb
     876                            .global main
     877                    
     878                    $C$DW$31        .dwtag  DW_TAG_subprogram
     879                            .dwattr $C$DW$31, DW_AT_name("main")
     880                            .dwattr $C$DW$31, DW_AT_low_pc(main)
TI ARM Assembler PC v18.12.2 Sat Dec 14 17:40:32 2019

Copyright (c) 1996-2018 Texas Instruments Incorporated
BL_Master.asm                                                        PAGE   17

     881                            .dwattr $C$DW$31, DW_AT_high_pc(0x00)
     882                            .dwattr $C$DW$31, DW_AT_TI_symbol_name("main")
     883                            .dwattr $C$DW$31, DW_AT_external
     884                            .dwattr $C$DW$31, DW_AT_type(*$C$DW$T$10)
     885                            .dwattr $C$DW$31, DW_AT_TI_begin_file("../BL_Master.c")
     886                            .dwattr $C$DW$31, DW_AT_TI_begin_line(0x23)
     887                            .dwattr $C$DW$31, DW_AT_TI_begin_column(0x05)
     888                            .dwattr $C$DW$31, DW_AT_decl_file("../BL_Master.c")
     889                            .dwattr $C$DW$31, DW_AT_decl_line(0x23)
     890                            .dwattr $C$DW$31, DW_AT_decl_column(0x05)
     891                            .dwattr $C$DW$31, DW_AT_TI_max_frame_size(0x08)
     892                            .dwpsn  file "../BL_Master.c",line 36,column 1,is_stmt,address main,isa 1
     893                    
     894                            .dwfde $C$DW$CIE, main
     895                    
     896                    ;*****************************************************************************
     897                    ;* FUNCTION NAME: main                                                       *
     898                    ;*                                                                           *
     899                    ;*   Regs Modified     : A1,A2,A3,A4,V9,SP,LR,SR,D0,D0_hi,D1,D1_hi,D2,D2_hi, *
     900                    ;*                           D3,D3_hi,D4,D4_hi,D5,D5_hi,D6,D6_hi,D7,D7_hi,   *
     901                    ;*                           FPEXC,FPSCR                                     *
     902                    ;*   Regs Used         : A1,A2,A3,A4,V9,SP,LR,SR,D0,D0_hi,D1,D1_hi,D2,D2_hi, *
     903                    ;*                           D3,D3_hi,D4,D4_hi,D5,D5_hi,D6,D6_hi,D7,D7_hi,   *
     904                    ;*                           FPEXC,FPSCR                                     *
     905                    ;*   Local Frame Size  : 0 Args + 4 Auto + 4 Save = 8 byte                   *
     906                    ;*****************************************************************************
     907 00000000           main:
     908                    ;* --------------------------------------------------------------------------*
     909                            .dwcfi  cfa_offset, 0
     910 00000000 B508              PUSH      {A4, LR}              ; [DPU_V7M3_PIPE]  ; [ORIG 16-BIT INS]
     911                            .dwcfi  cfa_offset, 8
     912                            .dwcfi  save_reg_to_mem, 14, -4
     913                            .dwcfi  save_reg_to_mem, 3, -8
     914                    $C$DW$32        .dwtag  DW_TAG_variable
     915                            .dwattr $C$DW$32, DW_AT_name("state_machine")
     916                            .dwattr $C$DW$32, DW_AT_TI_symbol_name("state_machine")
     917                            .dwattr $C$DW$32, DW_AT_type(*$C$DW$T$196)
     918                            .dwattr $C$DW$32, DW_AT_location[DW_OP_breg13 0]
     919                    
     920                            .dwpsn  file "../BL_Master.c",line 39,column 5,is_stmt,isa 1
     921 00000002 4927              LDR       A2, $C$CON1           ; [DPU_V7M3_PIPE] |39|  ; [ORIG 16-BIT INS]
     922 00000004 40B5F44F          MOV       A1, #23168            ; [DPU_V7M3_PIPE] |39|  ; [KEEP 32-BIT INS]
     923 00000008 8008              STRH      A1, [A2, #0]          ; [DPU_V7M3_PIPE] |39|  ; [ORIG 16-BIT INS]
     924                            .dwpsn  file "../BL_Master.c",line 41,column 5,is_stmt,isa 1
     925 0000000a 4926              LDR       A2, $C$CON2           ; [DPU_V7M3_PIPE] |41|  ; [ORIG 16-BIT INS]
     926 0000000c 105AF646          MOV       A1, #26970            ; [DPU_V7M3_PIPE] |41|  ; [KEEP 32-BIT INS]
     927 00000010 6008              STR       A1, [A2, #0]          ; [DPU_V7M3_PIPE] |41|  ; [ORIG 16-BIT INS]
     928                            .dwpsn  file "../BL_Master.c",line 42,column 5,is_stmt,isa 1
     929 00000012 4925              LDR       A2, $C$CON3           ; [DPU_V7M3_PIPE] |42|  ; [ORIG 16-BIT INS]
     930 00000014 2000              MOVS      A1, #0                ; [DPU_V7M3_PIPE] |42|  ; [ORIG 16-BIT INS]
     931 00000016 6008              STR       A1, [A2, #0]          ; [DPU_V7M3_PIPE] |42|  ; [ORIG 16-BIT INS]
     932                            .dwpsn  file "../BL_Master.c",line 43,column 5,is_stmt,isa 1
     933 00000018 4923              LDR       A2, $C$CON3           ; [DPU_V7M3_PIPE] |43|  ; [ORIG 16-BIT INS]
     934 0000001a 3040F44F          MOV       A1, #196608           ; [DPU_V7M3_PIPE] |43|  ; [KEEP 32-BIT INS]
     935 0000001e 6008              STR       A1, [A2, #0]          ; [DPU_V7M3_PIPE] |43|  ; [ORIG 16-BIT INS]
TI ARM Assembler PC v18.12.2 Sat Dec 14 17:40:32 2019

Copyright (c) 1996-2018 Texas Instruments Incorporated
BL_Master.asm                                                        PAGE   18

     936                            .dwpsn  file "../BL_Master.c",line 44,column 5,is_stmt,isa 1
     937 00000020 4922              LDR       A2, $C$CON4           ; [DPU_V7M3_PIPE] |44|  ; [ORIG 16-BIT INS]
     938 00000022 2033F240          MOV       A1, #563              ; [DPU_V7M3_PIPE] |44|  ; [KEEP 32-BIT INS]
     939 00000026 6008              STR       A1, [A2, #0]          ; [DPU_V7M3_PIPE] |44|  ; [ORIG 16-BIT INS]
     940                            .dwpsn  file "../BL_Master.c",line 47,column 5,is_stmt,isa 1
     941 00000028 491E              LDR       A2, $C$CON2           ; [DPU_V7M3_PIPE] |47|  ; [ORIG 16-BIT INS]
     942 0000002a 2000              MOVS      A1, #0                ; [DPU_V7M3_PIPE] |47|  ; [ORIG 16-BIT INS]
     943 0000002c 6008              STR       A1, [A2, #0]          ; [DPU_V7M3_PIPE] |47|  ; [ORIG 16-BIT INS]
     944                            .dwpsn  file "../BL_Master.c",line 53,column 5,is_stmt,isa 1
     945                    $C$DW$33        .dwtag  DW_TAG_TI_branch
     946                            .dwattr $C$DW$33, DW_AT_low_pc(0x00)
     947                            .dwattr $C$DW$33, DW_AT_name("UART0_Init")
     948                            .dwattr $C$DW$33, DW_AT_TI_call
     949                    
     950 0000002e FFFEF7FF!         BL        UART0_Init            ; [DPU_V7M3_PIPE] |53|  ; [KEEP 32-BIT INS]
     951                            ; CALL OCCURS {UART0_Init }      ; [] |53| 
     952                            .dwpsn  file "../BL_Master.c",line 54,column 5,is_stmt,isa 1
     953                    $C$DW$34        .dwtag  DW_TAG_TI_branch
     954                            .dwattr $C$DW$34, DW_AT_low_pc(0x00)
     955                            .dwattr $C$DW$34, DW_AT_name("UART2_Init")
     956                            .dwattr $C$DW$34, DW_AT_TI_call
     957                    
     958 00000032 FFFEF7FF!         BL        UART2_Init            ; [DPU_V7M3_PIPE] |54|  ; [KEEP 32-BIT INS]
     959                            ; CALL OCCURS {UART2_Init }      ; [] |54| 
     960                            .dwpsn  file "../BL_Master.c",line 55,column 5,is_stmt,isa 1
     961                    $C$DW$35        .dwtag  DW_TAG_TI_branch
     962                            .dwattr $C$DW$35, DW_AT_low_pc(0x00)
     963                            .dwattr $C$DW$35, DW_AT_name("State_Machine_Init")
     964                            .dwattr $C$DW$35, DW_AT_TI_call
     965                    
     966 00000036 FFFEF7FF!         BL        State_Machine_Init    ; [DPU_V7M3_PIPE] |55|  ; [KEEP 32-BIT INS]
     967                            ; CALL OCCURS {State_Machine_Init }  ; [] |55| 
     968                            .dwpsn  file "../BL_Master.c",line 58,column 5,is_stmt,isa 1
     969 0000003a 491D              LDR       A2, $C$CON5           ; [DPU_V7M3_PIPE] |58|  ; [ORIG 16-BIT INS]
     970 0000003c 7808              LDRB      A1, [A2, #0]          ; [DPU_V7M3_PIPE] |58|  ; [ORIG 16-BIT INS]
     971 0000003e 0001F040          ORR       A1, A1, #1            ; [DPU_V7M3_PIPE] |58|  ; [KEEP 32-BIT INS]
     972 00000042 7008              STRB      A1, [A2, #0]          ; [DPU_V7M3_PIPE] |58|  ; [ORIG 16-BIT INS]
     973                            .dwpsn  file "../BL_Master.c",line 59,column 5,is_stmt,isa 1
     974 00000044 491B              LDR       A2, $C$CON6           ; [DPU_V7M3_PIPE] |59|  ; [ORIG 16-BIT INS]
     975 00000046 7808              LDRB      A1, [A2, #0]          ; [DPU_V7M3_PIPE] |59|  ; [ORIG 16-BIT INS]
     976 00000048 0001F020          BIC       A1, A1, #1            ; [DPU_V7M3_PIPE] |59|  ; [KEEP 32-BIT INS]
     977 0000004c 7008              STRB      A1, [A2, #0]          ; [DPU_V7M3_PIPE] |59|  ; [ORIG 16-BIT INS]
     978                            .dwpsn  file "../BL_Master.c",line 62,column 5,is_stmt,isa 1
     979 0000004e 491A              LDR       A2, $C$CON7           ; [DPU_V7M3_PIPE] |62|  ; [ORIG 16-BIT INS]
     980 00000050 7808              LDRB      A1, [A2, #0]          ; [DPU_V7M3_PIPE] |62|  ; [ORIG 16-BIT INS]
     981 00000052 0002F040          ORR       A1, A1, #2            ; [DPU_V7M3_PIPE] |62|  ; [KEEP 32-BIT INS]
     982 00000056 7008              STRB      A1, [A2, #0]          ; [DPU_V7M3_PIPE] |62|  ; [ORIG 16-BIT INS]
     983                            .dwpsn  file "../BL_Master.c",line 63,column 5,is_stmt,isa 1
     984 00000058 4918              LDR       A2, $C$CON8           ; [DPU_V7M3_PIPE] |63|  ; [ORIG 16-BIT INS]
     985 0000005a 7808              LDRB      A1, [A2, #0]          ; [DPU_V7M3_PIPE] |63|  ; [ORIG 16-BIT INS]
     986 0000005c 0002F020          BIC       A1, A1, #2            ; [DPU_V7M3_PIPE] |63|  ; [KEEP 32-BIT INS]
     987 00000060 7008              STRB      A1, [A2, #0]          ; [DPU_V7M3_PIPE] |63|  ; [ORIG 16-BIT INS]
     988                            .dwpsn  file "../BL_Master.c",line 66,column 5,is_stmt,isa 1
     989 00000062 4915              LDR       A2, $C$CON7           ; [DPU_V7M3_PIPE] |66|  ; [ORIG 16-BIT INS]
     990 00000064 7808              LDRB      A1, [A2, #0]          ; [DPU_V7M3_PIPE] |66|  ; [ORIG 16-BIT INS]
TI ARM Assembler PC v18.12.2 Sat Dec 14 17:40:32 2019

Copyright (c) 1996-2018 Texas Instruments Incorporated
BL_Master.asm                                                        PAGE   19

     991 00000066 0004F040          ORR       A1, A1, #4            ; [DPU_V7M3_PIPE] |66|  ; [KEEP 32-BIT INS]
     992 0000006a 7008              STRB      A1, [A2, #0]          ; [DPU_V7M3_PIPE] |66|  ; [ORIG 16-BIT INS]
     993                            .dwpsn  file "../BL_Master.c",line 67,column 5,is_stmt,isa 1
     994 0000006c 4913              LDR       A2, $C$CON8           ; [DPU_V7M3_PIPE] |67|  ; [ORIG 16-BIT INS]
     995 0000006e 7808              LDRB      A1, [A2, #0]          ; [DPU_V7M3_PIPE] |67|  ; [ORIG 16-BIT INS]
     996 00000070 0004F020          BIC       A1, A1, #4            ; [DPU_V7M3_PIPE] |67|  ; [KEEP 32-BIT INS]
     997 00000074 7008              STRB      A1, [A2, #0]          ; [DPU_V7M3_PIPE] |67|  ; [ORIG 16-BIT INS]
     998                            .dwpsn  file "../BL_Master.c",line 71,column 5,is_stmt,isa 1
     999 00000076 B662              CPSIE     i                     ; [DPU_V7M3_PIPE] |71|  ; [ORIG 16-BIT INS]
    1000                            .dwpsn  file "../BL_Master.c",line 75,column 5,is_stmt,isa 1
    1001 00000078 4911              LDR       A2, $C$CON9           ; [DPU_V7M3_PIPE] |75|  ; [ORIG 16-BIT INS]
    1002 0000007a 3080F44F          MOV       A1, #65536            ; [DPU_V7M3_PIPE] |75|  ; [KEEP 32-BIT INS]
    1003 0000007e 6008              STR       A1, [A2, #0]          ; [DPU_V7M3_PIPE] |75|  ; [ORIG 16-BIT INS]
    1004                            .dwpsn  file "../BL_Master.c",line 76,column 5,is_stmt,isa 1
    1005 00000080 490F              LDR       A2, $C$CON9           ; [DPU_V7M3_PIPE] |76|  ; [ORIG 16-BIT INS]
    1006 00000082 2080F44F          MOV       A1, #262144           ; [DPU_V7M3_PIPE] |76|  ; [KEEP 32-BIT INS]
    1007 00000086 6008              STR       A1, [A2, #0]          ; [DPU_V7M3_PIPE] |76|  ; [ORIG 16-BIT INS]
    1008                            .dwpsn  file "../BL_Master.c",line 80,column 36,is_stmt,isa 1
    1009 00000088 2000              MOVS      A1, #0                ; [DPU_V7M3_PIPE] |80|  ; [ORIG 16-BIT INS]
    1010 0000008a 9000              STR       A1, [SP, #0]          ; [DPU_V7M3_PIPE] |80|  ; [ORIG 16-BIT INS]
    1011                            .dwpsn  file "../BL_Master.c",line 81,column 5,is_stmt,isa 1
    1012                    $C$DW$36        .dwtag  DW_TAG_TI_branch
    1013                            .dwattr $C$DW$36, DW_AT_low_pc(0x00)
    1014                            .dwattr $C$DW$36, DW_AT_name("State_Machine_Init")
    1015                            .dwattr $C$DW$36, DW_AT_TI_call
    1016                    
    1017 0000008c FFFEF7FF!         BL        State_Machine_Init    ; [DPU_V7M3_PIPE] |81|  ; [KEEP 32-BIT INS]
    1018                            ; CALL OCCURS {State_Machine_Init }  ; [] |81| 
    1019 00000090 9000              STR       A1, [SP, #0]          ; [DPU_V7M3_PIPE] |81|  ; [ORIG 16-BIT INS]
    1020                            .dwpsn  file "../BL_Master.c",line 83,column 11,is_stmt,isa 1
    1021                    ;* --------------------------------------------------------------------------*
    1022                    ;*   BEGIN LOOP ||$C$L1||
    1023                    ;*
    1024                    ;*   Loop source line                : 83
    1025                    ;*   Loop closing brace source line  : 88
    1026                    ;*   Known Minimum Trip Count        : 1
    1027                    ;*   Known Maximum Trip Count        : 4294967295
    1028                    ;*   Known Max Trip Count Factor     : 1
    1029                    ;* --------------------------------------------------------------------------*
    1030 00000092           ||$C$L1||:    
    1031                            .dwpsn  file "../BL_Master.c",line 87,column 11,is_stmt,isa 1
    1032 00000092 490C              LDR       A2, $C$CON10          ; [DPU_V7M3_PIPE] |87|  ; [ORIG 16-BIT INS]
    1033 00000094 9800              LDR       A1, [SP, #0]          ; [DPU_V7M3_PIPE] |87|  ; [ORIG 16-BIT INS]
    1034 00000096 6809              LDR       A2, [A2, #0]          ; [DPU_V7M3_PIPE] |87|  ; [ORIG 16-BIT INS]
    1035                    $C$DW$37        .dwtag  DW_TAG_TI_branch
    1036                            .dwattr $C$DW$37, DW_AT_low_pc(0x00)
    1037                            .dwattr $C$DW$37, DW_AT_name("Event_Handler")
    1038                            .dwattr $C$DW$37, DW_AT_TI_call
    1039                    
    1040 00000098 FFFEF7FF!         BL        Event_Handler         ; [DPU_V7M3_PIPE] |87|  ; [KEEP 32-BIT INS]
    1041                            ; CALL OCCURS {Event_Handler }   ; [] |87| 
    1042                            .dwpsn  file "../BL_Master.c",line 83,column 11,is_stmt,isa 1
    1043 0000009c E7F9              B         ||$C$L1||             ; [DPU_V7M3_PIPE] |83|  ; [ORIG 16-BIT INS]
    1044                            ; BRANCH OCCURS {||$C$L1||}      ; [] |83| 
    1045                    ;* --------------------------------------------------------------------------*
TI ARM Assembler PC v18.12.2 Sat Dec 14 17:40:32 2019

Copyright (c) 1996-2018 Texas Instruments Incorporated
BL_Master.asm                                                        PAGE   20

    1046                            .dwattr $C$DW$31, DW_AT_TI_end_file("../BL_Master.c")
    1047                            .dwattr $C$DW$31, DW_AT_TI_end_line(0x59)
    1048                            .dwattr $C$DW$31, DW_AT_TI_end_column(0x01)
    1049                            .dwendentry
    1050                            .dwendtag $C$DW$31
    1051                    
    1052 00000000                   .sect   ".text:EUSCIA2_IRQHandler"
    1053                            .clink
    1054                            .thumbfunc EUSCIA2_IRQHandler
    1055 00000000                   .thumb
    1056                            .global EUSCIA2_IRQHandler
    1057                    
    1058                    $C$DW$38        .dwtag  DW_TAG_subprogram
    1059                            .dwattr $C$DW$38, DW_AT_name("EUSCIA2_IRQHandler")
    1060                            .dwattr $C$DW$38, DW_AT_low_pc(EUSCIA2_IRQHandler)
    1061                            .dwattr $C$DW$38, DW_AT_high_pc(0x00)
    1062                            .dwattr $C$DW$38, DW_AT_TI_symbol_name("EUSCIA2_IRQHandler")
    1063                            .dwattr $C$DW$38, DW_AT_external
    1064                            .dwattr $C$DW$38, DW_AT_TI_begin_file("../BL_Master.c")
    1065                            .dwattr $C$DW$38, DW_AT_TI_begin_line(0x5c)
    1066                            .dwattr $C$DW$38, DW_AT_TI_begin_column(0x06)
    1067                            .dwattr $C$DW$38, DW_AT_decl_file("../BL_Master.c")
    1068                            .dwattr $C$DW$38, DW_AT_decl_line(0x5c)
    1069                            .dwattr $C$DW$38, DW_AT_decl_column(0x06)
    1070                            .dwattr $C$DW$38, DW_AT_TI_max_frame_size(0x00)
    1071                            .dwpsn  file "../BL_Master.c",line 93,column 1,is_stmt,address EUSCIA2_IRQHandler,isa 1
    1072                    
    1073                            .dwfde $C$DW$CIE, EUSCIA2_IRQHandler
    1074                    
    1075                    ;*****************************************************************************
    1076                    ;* FUNCTION NAME: EUSCIA2_IRQHandler                                         *
    1077                    ;*                                                                           *
    1078                    ;*   Regs Modified     : A1,A2,SR                                            *
    1079                    ;*   Regs Used         : A1,A2,LR,SR                                         *
    1080                    ;*   Local Frame Size  : 0 Args + 0 Auto + 0 Save = 0 byte                   *
    1081                    ;*****************************************************************************
    1082 00000000           EUSCIA2_IRQHandler:
    1083                    ;* --------------------------------------------------------------------------*
    1084                            .dwcfi  cfa_offset, 0
    1085                            .dwpsn  file "../BL_Master.c",line 94,column 13,is_stmt,isa 1
    1086 00000000 4821              LDR       A1, $C$CON11          ; [DPU_V7M3_PIPE] |94|  ; [ORIG 16-BIT INS]
    1087 00000002 8800              LDRH      A1, [A1, #0]          ; [DPU_V7M3_PIPE] |94|  ; [ORIG 16-BIT INS]
    1088 00000004 0840              LSRS      A1, A1, #1            ; [DPU_V7M3_PIPE] |94|  ; [ORIG 16-BIT INS]
    1089 00000006 D33D              BCC       ||$C$L7||             ; [DPU_V7M3_PIPE] |94|  ; [ORIG 16-BIT INS]
    1090                            ; BRANCHCC OCCURS {||$C$L7||}    ; [] |94| 
    1091                    ;* --------------------------------------------------------------------------*
    1092                            .dwpsn  file "../BL_Master.c",line 96,column 13,is_stmt,isa 1
    1093 00000008 4920              LDR       A2, $C$CON12          ; [DPU_V7M3_PIPE] |96|  ; [ORIG 16-BIT INS]
    1094 0000000a 7808              LDRB      A1, [A2, #0]          ; [DPU_V7M3_PIPE] |96|  ; [ORIG 16-BIT INS]
    1095 0000000c 0002F080          EOR       A1, A1, #2            ; [DPU_V7M3_PIPE] |96|  ; [KEEP 32-BIT INS]
    1096 00000010 7008              STRB      A1, [A2, #0]          ; [DPU_V7M3_PIPE] |96|  ; [ORIG 16-BIT INS]
    1097                            .dwpsn  file "../BL_Master.c",line 97,column 13,is_stmt,isa 1
    1098 00000012 481F              LDR       A1, $C$CON13          ; [DPU_V7M3_PIPE] |97|  ; [ORIG 16-BIT INS]
    1099 00000014 8800              LDRH      A1, [A1, #0]          ; [DPU_V7M3_PIPE] |97|  ; [ORIG 16-BIT INS]
    1100 00000016 2853              CMP       A1, #83               ; [DPU_V7M3_PIPE] |97|  ; [ORIG 16-BIT INS]
TI ARM Assembler PC v18.12.2 Sat Dec 14 17:40:32 2019

Copyright (c) 1996-2018 Texas Instruments Incorporated
BL_Master.asm                                                        PAGE   21

    1101 00000018 D104              BNE       ||$C$L2||             ; [DPU_V7M3_PIPE] |97|  ; [ORIG 16-BIT INS]
    1102                            ; BRANCHCC OCCURS {||$C$L2||}    ; [] |97| 
    1103                    ;* --------------------------------------------------------------------------*
    1104                            .dwpsn  file "../BL_Master.c",line 99,column 21,is_stmt,isa 1
    1105 0000001a 481E              LDR       A1, $C$CON14          ; [DPU_V7M3_PIPE] |99|  ; [ORIG 16-BIT INS]
    1106 0000001c 6800              LDR       A1, [A1, #0]          ; [DPU_V7M3_PIPE] |99|  ; [ORIG 16-BIT INS]
    1107 0000001e 2101              MOVS      A2, #1                ; [DPU_V7M3_PIPE] |99|  ; [ORIG 16-BIT INS]
    1108 00000020 7201              STRB      A2, [A1, #8]          ; [DPU_V7M3_PIPE] |99|  ; [ORIG 16-BIT INS]
    1109                            .dwpsn  file "../BL_Master.c",line 100,column 17,is_stmt,isa 1
    1110 00000022 E027              B         ||$C$L6||             ; [DPU_V7M3_PIPE] |100|  ; [ORIG 16-BIT INS]
    1111                            ; BRANCH OCCURS {||$C$L6||}      ; [] |100| 
    1112                    ;* --------------------------------------------------------------------------*
    1113 00000024           ||$C$L2||:    
    1114                            .dwpsn  file "../BL_Master.c",line 101,column 18,is_stmt,isa 1
    1115 00000024 481A              LDR       A1, $C$CON13          ; [DPU_V7M3_PIPE] |101|  ; [ORIG 16-BIT INS]
    1116 00000026 8800              LDRH      A1, [A1, #0]          ; [DPU_V7M3_PIPE] |101|  ; [ORIG 16-BIT INS]
    1117 00000028 2846              CMP       A1, #70               ; [DPU_V7M3_PIPE] |101|  ; [ORIG 16-BIT INS]
    1118 0000002a D104              BNE       ||$C$L3||             ; [DPU_V7M3_PIPE] |101|  ; [ORIG 16-BIT INS]
    1119                            ; BRANCHCC OCCURS {||$C$L3||}    ; [] |101| 
    1120                    ;* --------------------------------------------------------------------------*
    1121                            .dwpsn  file "../BL_Master.c",line 104,column 21,is_stmt,isa 1
    1122 0000002c 4819              LDR       A1, $C$CON14          ; [DPU_V7M3_PIPE] |104|  ; [ORIG 16-BIT INS]
    1123 0000002e 6800              LDR       A1, [A1, #0]          ; [DPU_V7M3_PIPE] |104|  ; [ORIG 16-BIT INS]
    1124 00000030 2101              MOVS      A2, #1                ; [DPU_V7M3_PIPE] |104|  ; [ORIG 16-BIT INS]
    1125 00000032 7141              STRB      A2, [A1, #5]          ; [DPU_V7M3_PIPE] |104|  ; [ORIG 16-BIT INS]
    1126                            .dwpsn  file "../BL_Master.c",line 105,column 18,is_stmt,isa 1
    1127 00000034 E01E              B         ||$C$L6||             ; [DPU_V7M3_PIPE] |105|  ; [ORIG 16-BIT INS]
    1128                            ; BRANCH OCCURS {||$C$L6||}      ; [] |105| 
    1129                    ;* --------------------------------------------------------------------------*
    1130 00000036           ||$C$L3||:    
    1131                            .dwpsn  file "../BL_Master.c",line 106,column 18,is_stmt,isa 1
    1132 00000036 4816              LDR       A1, $C$CON13          ; [DPU_V7M3_PIPE] |106|  ; [ORIG 16-BIT INS]
    1133 00000038 8800              LDRH      A1, [A1, #0]          ; [DPU_V7M3_PIPE] |106|  ; [ORIG 16-BIT INS]
    1134 0000003a 2866              CMP       A1, #102              ; [DPU_V7M3_PIPE] |106|  ; [ORIG 16-BIT INS]
    1135 0000003c D104              BNE       ||$C$L4||             ; [DPU_V7M3_PIPE] |106|  ; [ORIG 16-BIT INS]
    1136                            ; BRANCHCC OCCURS {||$C$L4||}    ; [] |106| 
    1137                    ;* --------------------------------------------------------------------------*
    1138                            .dwpsn  file "../BL_Master.c",line 109,column 21,is_stmt,isa 1
    1139 0000003e 4815              LDR       A1, $C$CON14          ; [DPU_V7M3_PIPE] |109|  ; [ORIG 16-BIT INS]
    1140 00000040 6800              LDR       A1, [A1, #0]          ; [DPU_V7M3_PIPE] |109|  ; [ORIG 16-BIT INS]
    1141 00000042 2101              MOVS      A2, #1                ; [DPU_V7M3_PIPE] |109|  ; [ORIG 16-BIT INS]
    1142 00000044 7101              STRB      A2, [A1, #4]          ; [DPU_V7M3_PIPE] |109|  ; [ORIG 16-BIT INS]
    1143                            .dwpsn  file "../BL_Master.c",line 110,column 18,is_stmt,isa 1
    1144 00000046 E015              B         ||$C$L6||             ; [DPU_V7M3_PIPE] |110|  ; [ORIG 16-BIT INS]
    1145                            ; BRANCH OCCURS {||$C$L6||}      ; [] |110| 
    1146                    ;* --------------------------------------------------------------------------*
    1147 00000048           ||$C$L4||:    
    1148                            .dwpsn  file "../BL_Master.c",line 111,column 18,is_stmt,isa 1
    1149 00000048 4811              LDR       A1, $C$CON13          ; [DPU_V7M3_PIPE] |111|  ; [ORIG 16-BIT INS]
    1150 0000004a 8800              LDRH      A1, [A1, #0]          ; [DPU_V7M3_PIPE] |111|  ; [ORIG 16-BIT INS]
    1151 0000004c 2843              CMP       A1, #67               ; [DPU_V7M3_PIPE] |111|  ; [ORIG 16-BIT INS]
    1152 0000004e D109              BNE       ||$C$L5||             ; [DPU_V7M3_PIPE] |111|  ; [ORIG 16-BIT INS]
    1153                            ; BRANCHCC OCCURS {||$C$L5||}    ; [] |111| 
    1154                    ;* --------------------------------------------------------------------------*
    1155                            .dwpsn  file "../BL_Master.c",line 114,column 21,is_stmt,isa 1
TI ARM Assembler PC v18.12.2 Sat Dec 14 17:40:32 2019

Copyright (c) 1996-2018 Texas Instruments Incorporated
BL_Master.asm                                                        PAGE   22

    1156 00000050 490E              LDR       A2, $C$CON12          ; [DPU_V7M3_PIPE] |114|  ; [ORIG 16-BIT INS]
    1157 00000052 7808              LDRB      A1, [A2, #0]          ; [DPU_V7M3_PIPE] |114|  ; [ORIG 16-BIT INS]
    1158 00000054 0004F040          ORR       A1, A1, #4            ; [DPU_V7M3_PIPE] |114|  ; [KEEP 32-BIT INS]
    1159 00000058 7008              STRB      A1, [A2, #0]          ; [DPU_V7M3_PIPE] |114|  ; [ORIG 16-BIT INS]
    1160                            .dwpsn  file "../BL_Master.c",line 115,column 21,is_stmt,isa 1
    1161 0000005a 480E              LDR       A1, $C$CON14          ; [DPU_V7M3_PIPE] |115|  ; [ORIG 16-BIT INS]
    1162 0000005c 6800              LDR       A1, [A1, #0]          ; [DPU_V7M3_PIPE] |115|  ; [ORIG 16-BIT INS]
    1163 0000005e 2101              MOVS      A2, #1                ; [DPU_V7M3_PIPE] |115|  ; [ORIG 16-BIT INS]
    1164 00000060 7281              STRB      A2, [A1, #10]         ; [DPU_V7M3_PIPE] |115|  ; [ORIG 16-BIT INS]
    1165                            .dwpsn  file "../BL_Master.c",line 116,column 18,is_stmt,isa 1
    1166 00000062 E007              B         ||$C$L6||             ; [DPU_V7M3_PIPE] |116|  ; [ORIG 16-BIT INS]
    1167                            ; BRANCH OCCURS {||$C$L6||}      ; [] |116| 
    1168                    ;* --------------------------------------------------------------------------*
    1169 00000064           ||$C$L5||:    
    1170                            .dwpsn  file "../BL_Master.c",line 117,column 18,is_stmt,isa 1
    1171 00000064 480A              LDR       A1, $C$CON13          ; [DPU_V7M3_PIPE] |117|  ; [ORIG 16-BIT INS]
    1172 00000066 8800              LDRH      A1, [A1, #0]          ; [DPU_V7M3_PIPE] |117|  ; [ORIG 16-BIT INS]
    1173 00000068 2845              CMP       A1, #69               ; [DPU_V7M3_PIPE] |117|  ; [ORIG 16-BIT INS]
    1174 0000006a D103              BNE       ||$C$L6||             ; [DPU_V7M3_PIPE] |117|  ; [ORIG 16-BIT INS]
    1175                            ; BRANCHCC OCCURS {||$C$L6||}    ; [] |117| 
    1176                    ;* --------------------------------------------------------------------------*
    1177                            .dwpsn  file "../BL_Master.c",line 119,column 17,is_stmt,isa 1
    1178 0000006c 4809              LDR       A1, $C$CON14          ; [DPU_V7M3_PIPE] |119|  ; [ORIG 16-BIT INS]
    1179 0000006e 6800              LDR       A1, [A1, #0]          ; [DPU_V7M3_PIPE] |119|  ; [ORIG 16-BIT INS]
    1180 00000070 2101              MOVS      A2, #1                ; [DPU_V7M3_PIPE] |119|  ; [ORIG 16-BIT INS]
    1181 00000072 7041              STRB      A2, [A1, #1]          ; [DPU_V7M3_PIPE] |119|  ; [ORIG 16-BIT INS]
    1182                            .dwpsn  file "../BL_Master.c",line 123,column 13,is_stmt,isa 1
    1183                    ;* --------------------------------------------------------------------------*
    1184                    ;*   BEGIN LOOP ||$C$L6||
    1185                    ;*
    1186                    ;*   Loop source line                : 123
    1187                    ;*   Loop closing brace source line  : 123
    1188                    ;*   Known Minimum Trip Count        : 1
    1189                    ;*   Known Maximum Trip Count        : 4294967295
    1190                    ;*   Known Max Trip Count Factor     : 1
    1191                    ;* --------------------------------------------------------------------------*
    1192 00000074           ||$C$L6||:    
    1193                            .dwpsn  file "../BL_Master.c",line 123,column 19,is_stmt,isa 1
    1194 00000074 4808              LDR       A1, $C$CON15          ; [DPU_V7M3_PIPE] |123|  ; [ORIG 16-BIT INS]
    1195 00000076 8800              LDRH      A1, [A1, #0]          ; [DPU_V7M3_PIPE] |123|  ; [ORIG 16-BIT INS]
    1196 00000078 0880              LSRS      A1, A1, #2            ; [DPU_V7M3_PIPE] |123|  ; [ORIG 16-BIT INS]
    1197 0000007a D3FB              BCC       ||$C$L6||             ; [DPU_V7M3_PIPE] |123|  ; [ORIG 16-BIT INS]
    1198                            ; BRANCHCC OCCURS {||$C$L6||}    ; [] |123| 
    1199                    ;* --------------------------------------------------------------------------*
    1200                            .dwpsn  file "../BL_Master.c",line 124,column 13,is_stmt,isa 1
    1201 0000007c 4804              LDR       A1, $C$CON13          ; [DPU_V7M3_PIPE] |124|  ; [ORIG 16-BIT INS]
    1202 0000007e 4907              LDR       A2, $C$CON16          ; [DPU_V7M3_PIPE] |124|  ; [ORIG 16-BIT INS]
    1203 00000080 8800              LDRH      A1, [A1, #0]          ; [DPU_V7M3_PIPE] |124|  ; [ORIG 16-BIT INS]
    1204 00000082 8008              STRH      A1, [A2, #0]          ; [DPU_V7M3_PIPE] |124|  ; [ORIG 16-BIT INS]
    1205                            .dwpsn  file "../BL_Master.c",line 126,column 1,is_stmt,isa 1
    1206                    ;* --------------------------------------------------------------------------*
    1207                    ||$C$L7||:    
    1208                    $C$DW$39        .dwtag  DW_TAG_TI_branch
    1209                            .dwattr $C$DW$39, DW_AT_low_pc(0x00)
    1210                            .dwattr $C$DW$39, DW_AT_TI_return
TI ARM Assembler PC v18.12.2 Sat Dec 14 17:40:32 2019

Copyright (c) 1996-2018 Texas Instruments Incorporated
BL_Master.asm                                                        PAGE   23

    1211                    
    1212 00000084 4770              BX        LR                    ; [DPU_V7M3_PIPE]  ; [ORIG 16-BIT INS]
    1213                            ; BRANCH OCCURS                  ; [] 
    1214                            .dwattr $C$DW$38, DW_AT_TI_end_file("../BL_Master.c")
    1215                            .dwattr $C$DW$38, DW_AT_TI_end_line(0x7e)
    1216                            .dwattr $C$DW$38, DW_AT_TI_end_column(0x01)
    1217                            .dwendentry
    1218                            .dwendtag $C$DW$38
    1219                    
    1220 00000000                   .sect   ".text:EUSCIA0_IRQHandler"
    1221                            .clink
    1222                            .thumbfunc EUSCIA0_IRQHandler
    1223 00000000                   .thumb
    1224                            .global EUSCIA0_IRQHandler
    1225                    
    1226                    $C$DW$40        .dwtag  DW_TAG_subprogram
    1227                            .dwattr $C$DW$40, DW_AT_name("EUSCIA0_IRQHandler")
    1228                            .dwattr $C$DW$40, DW_AT_low_pc(EUSCIA0_IRQHandler)
    1229                            .dwattr $C$DW$40, DW_AT_high_pc(0x00)
    1230                            .dwattr $C$DW$40, DW_AT_TI_symbol_name("EUSCIA0_IRQHandler")
    1231                            .dwattr $C$DW$40, DW_AT_external
    1232                            .dwattr $C$DW$40, DW_AT_TI_begin_file("../BL_Master.c")
    1233                            .dwattr $C$DW$40, DW_AT_TI_begin_line(0x80)
    1234                            .dwattr $C$DW$40, DW_AT_TI_begin_column(0x06)
    1235                            .dwattr $C$DW$40, DW_AT_decl_file("../BL_Master.c")
    1236                            .dwattr $C$DW$40, DW_AT_decl_line(0x80)
    1237                            .dwattr $C$DW$40, DW_AT_decl_column(0x06)
    1238                            .dwattr $C$DW$40, DW_AT_TI_max_frame_size(0x00)
    1239                            .dwpsn  file "../BL_Master.c",line 129,column 1,is_stmt,address EUSCIA0_IRQHandler,isa 1
    1240                    
    1241                            .dwfde $C$DW$CIE, EUSCIA0_IRQHandler
    1242                    
    1243                    ;*****************************************************************************
    1244                    ;* FUNCTION NAME: EUSCIA0_IRQHandler                                         *
    1245                    ;*                                                                           *
    1246                    ;*   Regs Modified     : A1,A2,A3,SR                                         *
    1247                    ;*   Regs Used         : A1,A2,A3,LR,SR                                      *
    1248                    ;*   Local Frame Size  : 0 Args + 0 Auto + 0 Save = 0 byte                   *
    1249                    ;*****************************************************************************
    1250 00000000           EUSCIA0_IRQHandler:
    1251                    ;* --------------------------------------------------------------------------*
    1252                            .dwcfi  cfa_offset, 0
    1253                            .dwpsn  file "../BL_Master.c",line 131,column 13,is_stmt,isa 1
    1254 00000000 4810              LDR       A1, $C$CON17          ; [DPU_V7M3_PIPE] |131|  ; [ORIG 16-BIT INS]
    1255 00000002 8800              LDRH      A1, [A1, #0]          ; [DPU_V7M3_PIPE] |131|  ; [ORIG 16-BIT INS]
    1256 00000004 0840              LSRS      A1, A1, #1            ; [DPU_V7M3_PIPE] |131|  ; [ORIG 16-BIT INS]
    1257 00000006 D31B              BCC       ||$C$L9||             ; [DPU_V7M3_PIPE] |131|  ; [ORIG 16-BIT INS]
    1258                            ; BRANCHCC OCCURS {||$C$L9||}    ; [] |131| 
    1259                    ;* --------------------------------------------------------------------------*
    1260                            .dwpsn  file "../BL_Master.c",line 133,column 17,is_stmt,isa 1
    1261 00000008 490F              LDR       A2, $C$CON18          ; [DPU_V7M3_PIPE] |133|  ; [ORIG 16-BIT INS]
    1262 0000000a 7808              LDRB      A1, [A2, #0]          ; [DPU_V7M3_PIPE] |133|  ; [ORIG 16-BIT INS]
    1263 0000000c 0002F080          EOR       A1, A1, #2            ; [DPU_V7M3_PIPE] |133|  ; [KEEP 32-BIT INS]
    1264 00000010 7008              STRB      A1, [A2, #0]          ; [DPU_V7M3_PIPE] |133|  ; [ORIG 16-BIT INS]
    1265                            .dwpsn  file "../BL_Master.c",line 135,column 17,is_stmt,isa 1
TI ARM Assembler PC v18.12.2 Sat Dec 14 17:40:32 2019

Copyright (c) 1996-2018 Texas Instruments Incorporated
BL_Master.asm                                                        PAGE   24

    1266 00000012 480E              LDR       A1, $C$CON19          ; [DPU_V7M3_PIPE] |135|  ; [ORIG 16-BIT INS]
    1267 00000014 6800              LDR       A1, [A1, #0]          ; [DPU_V7M3_PIPE] |135|  ; [ORIG 16-BIT INS]
    1268 00000016 2101              MOVS      A2, #1                ; [DPU_V7M3_PIPE] |135|  ; [ORIG 16-BIT INS]
    1269 00000018 70C1              STRB      A2, [A1, #3]          ; [DPU_V7M3_PIPE] |135|  ; [ORIG 16-BIT INS]
    1270                            .dwpsn  file "../BL_Master.c",line 137,column 17,is_stmt,isa 1
    1271 0000001a 480D              LDR       A1, $C$CON20          ; [DPU_V7M3_PIPE] |137|  ; [ORIG 16-BIT INS]
    1272 0000001c 8800              LDRH      A1, [A1, #0]          ; [DPU_V7M3_PIPE] |137|  ; [ORIG 16-BIT INS]
    1273 0000001e 2840              CMP       A1, #64               ; [DPU_V7M3_PIPE] |137|  ; [ORIG 16-BIT INS]
    1274 00000020 D104              BNE       ||$C$L8||             ; [DPU_V7M3_PIPE] |137|  ; [ORIG 16-BIT INS]
    1275                            ; BRANCHCC OCCURS {||$C$L8||}    ; [] |137| 
    1276                    ;* --------------------------------------------------------------------------*
    1277                            .dwpsn  file "../BL_Master.c",line 140,column 21,is_stmt,isa 1
    1278 00000022 480A              LDR       A1, $C$CON19          ; [DPU_V7M3_PIPE] |140|  ; [ORIG 16-BIT INS]
    1279 00000024 6800              LDR       A1, [A1, #0]          ; [DPU_V7M3_PIPE] |140|  ; [ORIG 16-BIT INS]
    1280 00000026 2101              MOVS      A2, #1                ; [DPU_V7M3_PIPE] |140|  ; [ORIG 16-BIT INS]
    1281 00000028 7181              STRB      A2, [A1, #6]          ; [DPU_V7M3_PIPE] |140|  ; [ORIG 16-BIT INS]
    1282                            .dwpsn  file "../BL_Master.c",line 142,column 21,is_stmt,isa 1
    1283 0000002a E009              B         ||$C$L9||             ; [DPU_V7M3_PIPE] |142|  ; [ORIG 16-BIT INS]
    1284                            ; BRANCH OCCURS {||$C$L9||}      ; [] |142| 
    1285                    ;* --------------------------------------------------------------------------*
    1286 0000002c           ||$C$L8||:    
    1287                            .dwpsn  file "../BL_Master.c",line 145,column 25,is_stmt,isa 1
    1288 0000002c 490A              LDR       A2, $C$CON22          ; [DPU_V7M3_PIPE] |145|  ; [ORIG 16-BIT INS]
    1289 0000002e 4808              LDR       A1, $C$CON20          ; [DPU_V7M3_PIPE] |145|  ; [ORIG 16-BIT INS]
    1290 00000030 4A08              LDR       A3, $C$CON21          ; [DPU_V7M3_PIPE] |145|  ; [ORIG 16-BIT INS]
    1291 00000032 8809              LDRH      A2, [A2, #0]          ; [DPU_V7M3_PIPE] |145|  ; [ORIG 16-BIT INS]
    1292 00000034 8800              LDRH      A1, [A1, #0]          ; [DPU_V7M3_PIPE] |145|  ; [ORIG 16-BIT INS]
    1293 00000036 5450              STRB      A1, [A3, +A2]         ; [DPU_V7M3_PIPE] |145|  ; [ORIG 16-BIT INS]
    1294                            .dwpsn  file "../BL_Master.c",line 146,column 25,is_stmt,isa 1
    1295 00000038 4907              LDR       A2, $C$CON22          ; [DPU_V7M3_PIPE] |146|  ; [ORIG 16-BIT INS]
    1296 0000003a 8808              LDRH      A1, [A2, #0]          ; [DPU_V7M3_PIPE] |146|  ; [ORIG 16-BIT INS]
    1297 0000003c 1C40              ADDS      A1, A1, #1            ; [DPU_V7M3_PIPE] |146|  ; [ORIG 16-BIT INS]
    1298 0000003e 8008              STRH      A1, [A2, #0]          ; [DPU_V7M3_PIPE] |146|  ; [ORIG 16-BIT INS]
    1299                            .dwpsn  file "../BL_Master.c",line 149,column 1,is_stmt,isa 1
    1300                    ;* --------------------------------------------------------------------------*
    1301                    ||$C$L9||:    
    1302                    $C$DW$41        .dwtag  DW_TAG_TI_branch
    1303                            .dwattr $C$DW$41, DW_AT_low_pc(0x00)
    1304                            .dwattr $C$DW$41, DW_AT_TI_return
    1305                    
    1306 00000040 4770              BX        LR                    ; [DPU_V7M3_PIPE]  ; [ORIG 16-BIT INS]
    1307                            ; BRANCH OCCURS                  ; [] 
    1308                            .dwattr $C$DW$40, DW_AT_TI_end_file("../BL_Master.c")
    1309                            .dwattr $C$DW$40, DW_AT_TI_end_line(0x95)
    1310                            .dwattr $C$DW$40, DW_AT_TI_end_column(0x01)
    1311                            .dwendentry
    1312                            .dwendtag $C$DW$40
    1313                    
    1314                    ;******************************************************************************
    1315                    ;* CONSTANT TABLE                                                             *
    1316                    ;******************************************************************************
    1317 0000009e                   .sect   ".text:main"
    1318                            .align  4
    1319 0000009e 480C46C0  ||$C$CON1||:    .bits           0x4000480c,32
         000000a2 00004000 
TI ARM Assembler PC v18.12.2 Sat Dec 14 17:40:32 2019

Copyright (c) 1996-2018 Texas Instruments Incorporated
BL_Master.asm                                                        PAGE   25

    1320                    
    1321                            .align  4
    1322 000000a2 04004000  ||$C$CON2||:    .bits           0x40010400,32
         000000a6 00004001 
    1323                    
    1324                            .align  4
    1325 000000a6 04044001  ||$C$CON3||:    .bits           0x40010404,32
         000000aa 00004001 
    1326                    
    1327                            .align  4
    1328 000000aa 04084001  ||$C$CON4||:    .bits           0x40010408,32
         000000ae 00004001 
    1329                    
    1330                            .align  4
    1331 000000ae 4C044001  ||$C$CON5||:    .bits           0x40004c04,32
         000000b2 00004000 
    1332                    
    1333                            .align  4
    1334 000000b2 4C024000  ||$C$CON6||:    .bits           0x40004c02,32
         000000b6 00004000 
    1335                    
    1336                            .align  4
    1337 000000b6 4C054000  ||$C$CON7||:    .bits           0x40004c05,32
         000000ba 00004000 
    1338                    
    1339                            .align  4
    1340 000000ba 4C034000  ||$C$CON8||:    .bits           0x40004c03,32
         000000be 00004000 
    1341                    
    1342                            .align  4
    1343 000000be E1004000  ||$C$CON9||:    .bits           0xe000e100,32
         000000c2 0000E000 
    1344                    
    1345                            .align  4
    1346 000000c2 0000E000! ||$C$CON10||:   .bits   system_state,32
         000000c6 00000000 
    1347                    ;******************************************************************************
    1348                    ;* CONSTANT TABLE                                                             *
    1349                    ;******************************************************************************
    1350 00000086                   .sect   ".text:EUSCIA2_IRQHandler"
    1351                            .align  4
    1352 00000086 181C46C0  ||$C$CON11||:   .bits           0x4000181c,32
         0000008a 00004000 
    1353                    
    1354                            .align  4
    1355 0000008a 4C034000  ||$C$CON12||:   .bits           0x40004c03,32
         0000008e 00004000 
    1356                    
    1357                            .align  4
    1358 0000008e 180C4000  ||$C$CON13||:   .bits           0x4000180c,32
         00000092 00004000 
    1359                    
    1360                            .align  4
    1361 00000092 00004000! ||$C$CON14||:   .bits   system_state,32
         00000096 00000000 
TI ARM Assembler PC v18.12.2 Sat Dec 14 17:40:32 2019

Copyright (c) 1996-2018 Texas Instruments Incorporated
BL_Master.asm                                                        PAGE   26

    1362                            .align  4
    1363 00000096 101C0000  ||$C$CON15||:   .bits           0x4000101c,32
         0000009a 00004000 
    1364                    
    1365                            .align  4
    1366 0000009a 100E4000  ||$C$CON16||:   .bits           0x4000100e,32
         0000009e 00004000 
    1367                    
    1368                    ;******************************************************************************
    1369                    ;* CONSTANT TABLE                                                             *
    1370                    ;******************************************************************************
    1371 00000042                   .sect   ".text:EUSCIA0_IRQHandler"
    1372                            .align  4
    1373 00000042 101C46C0  ||$C$CON17||:   .bits           0x4000101c,32
         00000046 00004000 
    1374                    
    1375                            .align  4
    1376 00000046 4C034000  ||$C$CON18||:   .bits           0x40004c03,32
         0000004a 00004000 
    1377                    
    1378                            .align  4
    1379 0000004a 00004000! ||$C$CON19||:   .bits   system_state,32
         0000004e 00000000 
    1380                            .align  4
    1381 0000004e 100C0000  ||$C$CON20||:   .bits           0x4000100c,32
         00000052 00004000 
    1382                    
    1383                            .align  4
    1384 00000052 00004000! ||$C$CON21||:   .bits   buffer,32
         00000056 00000000 
    1385                            .align  4
    1386 00000056 00000000! ||$C$CON22||:   .bits   ISR_index,32
         0000005a 00000000 
    1387                    ;*****************************************************************************
    1388                    ;* UNDEFINED EXTERNAL REFERENCES                                             *
    1389                    ;*****************************************************************************
    1390                            .global UART0_Init
    1391                            .global UART2_Init
    1392                            .global State_Machine_Init
    1393                            .global Event_Handler
    1394                    
    1395                    ;******************************************************************************
    1396                    ;* BUILD ATTRIBUTES                                                           *
    1397                    ;******************************************************************************
    1398                            .battr "aeabi", Tag_File, 1, Tag_ABI_PCS_wchar_t(2)
    1399                            .battr "aeabi", Tag_File, 1, Tag_ABI_FP_rounding(0)
    1400                            .battr "aeabi", Tag_File, 1, Tag_ABI_FP_denormal(0)
    1401                            .battr "aeabi", Tag_File, 1, Tag_ABI_FP_exceptions(0)
    1402                            .battr "aeabi", Tag_File, 1, Tag_ABI_FP_number_model(1)
    1403                            .battr "aeabi", Tag_File, 1, Tag_ABI_enum_size(1)
    1404                            .battr "aeabi", Tag_File, 1, Tag_ABI_optimization_goals(5)
    1405                            .battr "aeabi", Tag_File, 1, Tag_ABI_FP_optimization_goals(0)
    1406                            .battr "TI", Tag_File, 1, Tag_Bitfield_layout(0)
    1407                            .battr "aeabi", Tag_File, 1, Tag_ABI_VFP_args(3)
    1408                            .battr "TI", Tag_File, 1, Tag_FP_interface(1)
TI ARM Assembler PC v18.12.2 Sat Dec 14 17:40:32 2019

Copyright (c) 1996-2018 Texas Instruments Incorporated
BL_Master.asm                                                        PAGE   27

    1409                    
    1410                    ;******************************************************************************
    1411                    ;* TYPE INFORMATION                                                           *
    1412                    ;******************************************************************************
    1413                    
    1414                    $C$DW$T$21      .dwtag  DW_TAG_enumeration_type
    1415                            .dwattr $C$DW$T$21, DW_AT_byte_size(0x01)
    1416                    $C$DW$42        .dwtag  DW_TAG_enumerator
    1417                            .dwattr $C$DW$42, DW_AT_name("sPC_Reception")
    1418                            .dwattr $C$DW$42, DW_AT_const_value(0x00)
    1419                            .dwattr $C$DW$42, DW_AT_decl_file("..\state_machine.h")
    1420                            .dwattr $C$DW$42, DW_AT_decl_line(0x24)
    1421                            .dwattr $C$DW$42, DW_AT_decl_column(0x05)
    1422                    
    1423                    $C$DW$43        .dwtag  DW_TAG_enumerator
    1424                            .dwattr $C$DW$43, DW_AT_name("sProcess_Data")
    1425                            .dwattr $C$DW$43, DW_AT_const_value(0x01)
    1426                            .dwattr $C$DW$43, DW_AT_decl_file("..\state_machine.h")
    1427                            .dwattr $C$DW$43, DW_AT_decl_line(0x25)
    1428                            .dwattr $C$DW$43, DW_AT_decl_column(0x05)
    1429                    
    1430                    $C$DW$44        .dwtag  DW_TAG_enumerator
    1431                            .dwattr $C$DW$44, DW_AT_name("sQuery_Programmer")
    1432                            .dwattr $C$DW$44, DW_AT_const_value(0x02)
    1433                            .dwattr $C$DW$44, DW_AT_decl_file("..\state_machine.h")
    1434                            .dwattr $C$DW$44, DW_AT_decl_line(0x26)
    1435                            .dwattr $C$DW$44, DW_AT_decl_column(0x05)
    1436                    
    1437                    $C$DW$45        .dwtag  DW_TAG_enumerator
    1438                            .dwattr $C$DW$45, DW_AT_name("sTransmission")
    1439                            .dwattr $C$DW$45, DW_AT_const_value(0x03)
    1440                            .dwattr $C$DW$45, DW_AT_decl_file("..\state_machine.h")
    1441                            .dwattr $C$DW$45, DW_AT_decl_line(0x27)
    1442                            .dwattr $C$DW$45, DW_AT_decl_column(0x05)
    1443                    
    1444                    $C$DW$46        .dwtag  DW_TAG_enumerator
    1445                            .dwattr $C$DW$46, DW_AT_name("sCheck_For_Validity")
    1446                            .dwattr $C$DW$46, DW_AT_const_value(0x04)
    1447                            .dwattr $C$DW$46, DW_AT_decl_file("..\state_machine.h")
    1448                            .dwattr $C$DW$46, DW_AT_decl_line(0x28)
    1449                            .dwattr $C$DW$46, DW_AT_decl_column(0x05)
    1450                    
    1451                    $C$DW$47        .dwtag  DW_TAG_enumerator
    1452                            .dwattr $C$DW$47, DW_AT_name("sError")
    1453                            .dwattr $C$DW$47, DW_AT_const_value(0x05)
    1454                            .dwattr $C$DW$47, DW_AT_decl_file("..\state_machine.h")
    1455                            .dwattr $C$DW$47, DW_AT_decl_line(0x29)
    1456                            .dwattr $C$DW$47, DW_AT_decl_column(0x05)
    1457                    
    1458                            .dwattr $C$DW$T$21, DW_AT_decl_file("..\state_machine.h")
    1459                            .dwattr $C$DW$T$21, DW_AT_decl_line(0x23)
    1460                            .dwattr $C$DW$T$21, DW_AT_decl_column(0x0e)
    1461                            .dwendtag $C$DW$T$21
    1462                    
    1463                    $C$DW$T$22      .dwtag  DW_TAG_typedef
TI ARM Assembler PC v18.12.2 Sat Dec 14 17:40:32 2019

Copyright (c) 1996-2018 Texas Instruments Incorporated
BL_Master.asm                                                        PAGE   28

    1464                            .dwattr $C$DW$T$22, DW_AT_name("state_t")
    1465                            .dwattr $C$DW$T$22, DW_AT_type(*$C$DW$T$21)
    1466                            .dwattr $C$DW$T$22, DW_AT_language(DW_LANG_C)
    1467                            .dwattr $C$DW$T$22, DW_AT_decl_file("..\state_machine.h")
    1468                            .dwattr $C$DW$T$22, DW_AT_decl_line(0x2b)
    1469                            .dwattr $C$DW$T$22, DW_AT_decl_column(0x03)
    1470                    
    1471                    
    1472                    $C$DW$T$23      .dwtag  DW_TAG_enumeration_type
    1473                            .dwattr $C$DW$T$23, DW_AT_byte_size(0x01)
    1474                    $C$DW$48        .dwtag  DW_TAG_enumerator
    1475                            .dwattr $C$DW$48, DW_AT_name("eStart")
    1476                            .dwattr $C$DW$48, DW_AT_const_value(0x00)
    1477                            .dwattr $C$DW$48, DW_AT_decl_file("..\state_machine.h")
    1478                            .dwattr $C$DW$48, DW_AT_decl_line(0x15)
    1479                            .dwattr $C$DW$48, DW_AT_decl_column(0x05)
    1480                    
    1481                    $C$DW$49        .dwtag  DW_TAG_enumerator
    1482                            .dwattr $C$DW$49, DW_AT_name("eRX_Start")
    1483                            .dwattr $C$DW$49, DW_AT_const_value(0x01)
    1484                            .dwattr $C$DW$49, DW_AT_decl_file("..\state_machine.h")
    1485                            .dwattr $C$DW$49, DW_AT_decl_line(0x16)
    1486                            .dwattr $C$DW$49, DW_AT_decl_column(0x05)
    1487                    
    1488                    $C$DW$50        .dwtag  DW_TAG_enumerator
    1489                            .dwattr $C$DW$50, DW_AT_name("eRX_Finish")
    1490                            .dwattr $C$DW$50, DW_AT_const_value(0x02)
    1491                            .dwattr $C$DW$50, DW_AT_decl_file("..\state_machine.h")
    1492                            .dwattr $C$DW$50, DW_AT_decl_line(0x17)
    1493                            .dwattr $C$DW$50, DW_AT_decl_column(0x05)
    1494                    
    1495                    $C$DW$51        .dwtag  DW_TAG_enumerator
    1496                            .dwattr $C$DW$51, DW_AT_name("eProcessing_Start")
    1497                            .dwattr $C$DW$51, DW_AT_const_value(0x03)
    1498                            .dwattr $C$DW$51, DW_AT_decl_file("..\state_machine.h")
    1499                            .dwattr $C$DW$51, DW_AT_decl_line(0x18)
    1500                            .dwattr $C$DW$51, DW_AT_decl_column(0x05)
    1501                    
    1502                    $C$DW$52        .dwtag  DW_TAG_enumerator
    1503                            .dwattr $C$DW$52, DW_AT_name("eProcessing_Finish")
    1504                            .dwattr $C$DW$52, DW_AT_const_value(0x04)
    1505                            .dwattr $C$DW$52, DW_AT_decl_file("..\state_machine.h")
    1506                            .dwattr $C$DW$52, DW_AT_decl_line(0x19)
    1507                            .dwattr $C$DW$52, DW_AT_decl_column(0x05)
    1508                    
    1509                    $C$DW$53        .dwtag  DW_TAG_enumerator
    1510                            .dwattr $C$DW$53, DW_AT_name("eProgrammer_Ready")
    1511                            .dwattr $C$DW$53, DW_AT_const_value(0x05)
    1512                            .dwattr $C$DW$53, DW_AT_decl_file("..\state_machine.h")
    1513                            .dwattr $C$DW$53, DW_AT_decl_line(0x1a)
    1514                            .dwattr $C$DW$53, DW_AT_decl_column(0x05)
    1515                    
    1516                    $C$DW$54        .dwtag  DW_TAG_enumerator
    1517                            .dwattr $C$DW$54, DW_AT_name("eTransmit")
    1518                            .dwattr $C$DW$54, DW_AT_const_value(0x06)
TI ARM Assembler PC v18.12.2 Sat Dec 14 17:40:32 2019

Copyright (c) 1996-2018 Texas Instruments Incorporated
BL_Master.asm                                                        PAGE   29

    1519                            .dwattr $C$DW$54, DW_AT_decl_file("..\state_machine.h")
    1520                            .dwattr $C$DW$54, DW_AT_decl_line(0x1b)
    1521                            .dwattr $C$DW$54, DW_AT_decl_column(0x05)
    1522                    
    1523                    $C$DW$55        .dwtag  DW_TAG_enumerator
    1524                            .dwattr $C$DW$55, DW_AT_name("eTransmit_Complete")
    1525                            .dwattr $C$DW$55, DW_AT_const_value(0x07)
    1526                            .dwattr $C$DW$55, DW_AT_decl_file("..\state_machine.h")
    1527                            .dwattr $C$DW$55, DW_AT_decl_line(0x1c)
    1528                            .dwattr $C$DW$55, DW_AT_decl_column(0x05)
    1529                    
    1530                    $C$DW$56        .dwtag  DW_TAG_enumerator
    1531                            .dwattr $C$DW$56, DW_AT_name("eCRC_Error")
    1532                            .dwattr $C$DW$56, DW_AT_const_value(0x08)
    1533                            .dwattr $C$DW$56, DW_AT_decl_file("..\state_machine.h")
    1534                            .dwattr $C$DW$56, DW_AT_decl_line(0x1d)
    1535                            .dwattr $C$DW$56, DW_AT_decl_column(0x05)
    1536                    
    1537                    $C$DW$57        .dwtag  DW_TAG_enumerator
    1538                            .dwattr $C$DW$57, DW_AT_name("ePROGRAMMING_DONE")
    1539                            .dwattr $C$DW$57, DW_AT_const_value(0x09)
    1540                            .dwattr $C$DW$57, DW_AT_decl_file("..\state_machine.h")
    1541                            .dwattr $C$DW$57, DW_AT_decl_line(0x1e)
    1542                            .dwattr $C$DW$57, DW_AT_decl_column(0x05)
    1543                    
    1544                    $C$DW$58        .dwtag  DW_TAG_enumerator
    1545                            .dwattr $C$DW$58, DW_AT_name("eChecksum_Error")
    1546                            .dwattr $C$DW$58, DW_AT_const_value(0x0a)
    1547                            .dwattr $C$DW$58, DW_AT_decl_file("..\state_machine.h")
    1548                            .dwattr $C$DW$58, DW_AT_decl_line(0x1f)
    1549                            .dwattr $C$DW$58, DW_AT_decl_column(0x05)
    1550                    
    1551                    $C$DW$59        .dwtag  DW_TAG_enumerator
    1552                            .dwattr $C$DW$59, DW_AT_name("eError")
    1553                            .dwattr $C$DW$59, DW_AT_const_value(0x0b)
    1554                            .dwattr $C$DW$59, DW_AT_decl_file("..\state_machine.h")
    1555                            .dwattr $C$DW$59, DW_AT_decl_line(0x20)
    1556                            .dwattr $C$DW$59, DW_AT_decl_column(0x05)
    1557                    
    1558                            .dwattr $C$DW$T$23, DW_AT_decl_file("..\state_machine.h")
    1559                            .dwattr $C$DW$T$23, DW_AT_decl_line(0x14)
    1560                            .dwattr $C$DW$T$23, DW_AT_decl_column(0x0e)
    1561                            .dwendtag $C$DW$T$23
    1562                    
    1563                    $C$DW$T$24      .dwtag  DW_TAG_typedef
    1564                            .dwattr $C$DW$T$24, DW_AT_name("event_t")
    1565                            .dwattr $C$DW$T$24, DW_AT_type(*$C$DW$T$23)
    1566                            .dwattr $C$DW$T$24, DW_AT_language(DW_LANG_C)
    1567                            .dwattr $C$DW$T$24, DW_AT_decl_file("..\state_machine.h")
    1568                            .dwattr $C$DW$T$24, DW_AT_decl_line(0x21)
    1569                            .dwattr $C$DW$T$24, DW_AT_decl_column(0x03)
    1570                    
    1571                    
    1572                    $C$DW$T$28      .dwtag  DW_TAG_enumeration_type
    1573                            .dwattr $C$DW$T$28, DW_AT_byte_size(0x01)
TI ARM Assembler PC v18.12.2 Sat Dec 14 17:40:32 2019

Copyright (c) 1996-2018 Texas Instruments Incorporated
BL_Master.asm                                                        PAGE   30

    1574                    $C$DW$60        .dwtag  DW_TAG_enumerator
    1575                            .dwattr $C$DW$60, DW_AT_name("errNO_Error")
    1576                            .dwattr $C$DW$60, DW_AT_const_value(0x00)
    1577                            .dwattr $C$DW$60, DW_AT_decl_file("..\common.h")
    1578                            .dwattr $C$DW$60, DW_AT_decl_line(0x13)
    1579                            .dwattr $C$DW$60, DW_AT_decl_column(0x05)
    1580                    
    1581                    $C$DW$61        .dwtag  DW_TAG_enumerator
    1582                            .dwattr $C$DW$61, DW_AT_name("errSM_Error")
    1583                            .dwattr $C$DW$61, DW_AT_const_value(0x01)
    1584                            .dwattr $C$DW$61, DW_AT_decl_file("..\common.h")
    1585                            .dwattr $C$DW$61, DW_AT_decl_line(0x14)
    1586                            .dwattr $C$DW$61, DW_AT_decl_column(0x05)
    1587                    
    1588                    $C$DW$62        .dwtag  DW_TAG_enumerator
    1589                            .dwattr $C$DW$62, DW_AT_name("errDisconnect")
    1590                            .dwattr $C$DW$62, DW_AT_const_value(0x02)
    1591                            .dwattr $C$DW$62, DW_AT_decl_file("..\common.h")
    1592                            .dwattr $C$DW$62, DW_AT_decl_line(0x15)
    1593                            .dwattr $C$DW$62, DW_AT_decl_column(0x05)
    1594                    
    1595                            .dwattr $C$DW$T$28, DW_AT_decl_file("..\common.h")
    1596                            .dwattr $C$DW$T$28, DW_AT_decl_line(0x12)
    1597                            .dwattr $C$DW$T$28, DW_AT_decl_column(0x0e)
    1598                            .dwendtag $C$DW$T$28
    1599                    
    1600                    $C$DW$T$29      .dwtag  DW_TAG_typedef
    1601                            .dwattr $C$DW$T$29, DW_AT_name("error_t")
    1602                            .dwattr $C$DW$T$29, DW_AT_type(*$C$DW$T$28)
    1603                            .dwattr $C$DW$T$29, DW_AT_language(DW_LANG_C)
    1604                            .dwattr $C$DW$T$29, DW_AT_decl_file("..\common.h")
    1605                            .dwattr $C$DW$T$29, DW_AT_decl_line(0x16)
    1606                            .dwattr $C$DW$T$29, DW_AT_decl_column(0x03)
    1607                    
    1608                    
    1609                    $C$DW$T$25      .dwtag  DW_TAG_structure_type
    1610                            .dwattr $C$DW$T$25, DW_AT_byte_size(0x02)
    1611                    $C$DW$63        .dwtag  DW_TAG_member
    1612                            .dwattr $C$DW$63, DW_AT_type(*$C$DW$T$22)
    1613                            .dwattr $C$DW$63, DW_AT_name("state")
    1614                            .dwattr $C$DW$63, DW_AT_TI_symbol_name("state")
    1615                            .dwattr $C$DW$63, DW_AT_data_member_location[DW_OP_plus_uconst 0x0]
    1616                            .dwattr $C$DW$63, DW_AT_accessibility(DW_ACCESS_public)
    1617                            .dwattr $C$DW$63, DW_AT_decl_file("..\state_machine.h")
    1618                            .dwattr $C$DW$63, DW_AT_decl_line(0x2f)
    1619                            .dwattr $C$DW$63, DW_AT_decl_column(0x0d)
    1620                    
    1621                    $C$DW$64        .dwtag  DW_TAG_member
    1622                            .dwattr $C$DW$64, DW_AT_type(*$C$DW$T$24)
    1623                            .dwattr $C$DW$64, DW_AT_name("event")
    1624                            .dwattr $C$DW$64, DW_AT_TI_symbol_name("event")
    1625                            .dwattr $C$DW$64, DW_AT_data_member_location[DW_OP_plus_uconst 0x1]
    1626                            .dwattr $C$DW$64, DW_AT_accessibility(DW_ACCESS_public)
    1627                            .dwattr $C$DW$64, DW_AT_decl_file("..\state_machine.h")
    1628                            .dwattr $C$DW$64, DW_AT_decl_line(0x30)
TI ARM Assembler PC v18.12.2 Sat Dec 14 17:40:32 2019

Copyright (c) 1996-2018 Texas Instruments Incorporated
BL_Master.asm                                                        PAGE   31

    1629                            .dwattr $C$DW$64, DW_AT_decl_column(0x0d)
    1630                    
    1631                            .dwattr $C$DW$T$25, DW_AT_decl_file("..\state_machine.h")
    1632                            .dwattr $C$DW$T$25, DW_AT_decl_line(0x2e)
    1633                            .dwattr $C$DW$T$25, DW_AT_decl_column(0x10)
    1634                            .dwendtag $C$DW$T$25
    1635                    
    1636                    $C$DW$T$195     .dwtag  DW_TAG_typedef
    1637                            .dwattr $C$DW$T$195, DW_AT_name("state_machine_t")
    1638                            .dwattr $C$DW$T$195, DW_AT_type(*$C$DW$T$25)
    1639                            .dwattr $C$DW$T$195, DW_AT_language(DW_LANG_C)
    1640                            .dwattr $C$DW$T$195, DW_AT_decl_file("..\state_machine.h")
    1641                            .dwattr $C$DW$T$195, DW_AT_decl_line(0x31)
    1642                            .dwattr $C$DW$T$195, DW_AT_decl_column(0x03)
    1643                    
    1644                    $C$DW$T$196     .dwtag  DW_TAG_pointer_type
    1645                            .dwattr $C$DW$T$196, DW_AT_type(*$C$DW$T$195)
    1646                            .dwattr $C$DW$T$196, DW_AT_address_class(0x20)
    1647                    
    1648                    
    1649                    $C$DW$T$30      .dwtag  DW_TAG_structure_type
    1650                            .dwattr $C$DW$T$30, DW_AT_byte_size(0x0b)
    1651                    $C$DW$65        .dwtag  DW_TAG_member
    1652                            .dwattr $C$DW$65, DW_AT_type(*$C$DW$T$27)
    1653                            .dwattr $C$DW$65, DW_AT_name("reception_ready")
    1654                            .dwattr $C$DW$65, DW_AT_TI_symbol_name("reception_ready")
    1655                            .dwattr $C$DW$65, DW_AT_data_member_location[DW_OP_plus_uconst 0x0]
    1656                            .dwattr $C$DW$65, DW_AT_accessibility(DW_ACCESS_public)
    1657                            .dwattr $C$DW$65, DW_AT_decl_file("..\common.h")
    1658                            .dwattr $C$DW$65, DW_AT_decl_line(0x1a)
    1659                            .dwattr $C$DW$65, DW_AT_decl_column(0x0d)
    1660                    
    1661                    $C$DW$66        .dwtag  DW_TAG_member
    1662                            .dwattr $C$DW$66, DW_AT_type(*$C$DW$T$29)
    1663                            .dwattr $C$DW$66, DW_AT_name("error_flag")
    1664                            .dwattr $C$DW$66, DW_AT_TI_symbol_name("error_flag")
    1665                            .dwattr $C$DW$66, DW_AT_data_member_location[DW_OP_plus_uconst 0x1]
    1666                            .dwattr $C$DW$66, DW_AT_accessibility(DW_ACCESS_public)
    1667                            .dwattr $C$DW$66, DW_AT_decl_file("..\common.h")
    1668                            .dwattr $C$DW$66, DW_AT_decl_line(0x1b)
    1669                            .dwattr $C$DW$66, DW_AT_decl_column(0x0d)
    1670                    
    1671                    $C$DW$67        .dwtag  DW_TAG_member
    1672                            .dwattr $C$DW$67, DW_AT_type(*$C$DW$T$27)
    1673                            .dwattr $C$DW$67, DW_AT_name("button_pressed")
    1674                            .dwattr $C$DW$67, DW_AT_TI_symbol_name("button_pressed")
    1675                            .dwattr $C$DW$67, DW_AT_data_member_location[DW_OP_plus_uconst 0x2]
    1676                            .dwattr $C$DW$67, DW_AT_accessibility(DW_ACCESS_public)
    1677                            .dwattr $C$DW$67, DW_AT_decl_file("..\common.h")
    1678                            .dwattr $C$DW$67, DW_AT_decl_line(0x1c)
    1679                            .dwattr $C$DW$67, DW_AT_decl_column(0x0d)
    1680                    
    1681                    $C$DW$68        .dwtag  DW_TAG_member
    1682                            .dwattr $C$DW$68, DW_AT_type(*$C$DW$T$27)
    1683                            .dwattr $C$DW$68, DW_AT_name("PC_RX_Flag")
TI ARM Assembler PC v18.12.2 Sat Dec 14 17:40:32 2019

Copyright (c) 1996-2018 Texas Instruments Incorporated
BL_Master.asm                                                        PAGE   32

    1684                            .dwattr $C$DW$68, DW_AT_TI_symbol_name("PC_RX_Flag")
    1685                            .dwattr $C$DW$68, DW_AT_data_member_location[DW_OP_plus_uconst 0x3]
    1686                            .dwattr $C$DW$68, DW_AT_accessibility(DW_ACCESS_public)
    1687                            .dwattr $C$DW$68, DW_AT_decl_file("..\common.h")
    1688                            .dwattr $C$DW$68, DW_AT_decl_line(0x1d)
    1689                            .dwattr $C$DW$68, DW_AT_decl_column(0x0d)
    1690                    
    1691                    $C$DW$69        .dwtag  DW_TAG_member
    1692                            .dwattr $C$DW$69, DW_AT_type(*$C$DW$T$27)
    1693                            .dwattr $C$DW$69, DW_AT_name("Checksum_Failure")
    1694                            .dwattr $C$DW$69, DW_AT_TI_symbol_name("Checksum_Failure")
    1695                            .dwattr $C$DW$69, DW_AT_data_member_location[DW_OP_plus_uconst 0x4]
    1696                            .dwattr $C$DW$69, DW_AT_accessibility(DW_ACCESS_public)
    1697                            .dwattr $C$DW$69, DW_AT_decl_file("..\common.h")
    1698                            .dwattr $C$DW$69, DW_AT_decl_line(0x1e)
    1699                            .dwattr $C$DW$69, DW_AT_decl_column(0x0d)
    1700                    
    1701                    $C$DW$70        .dwtag  DW_TAG_member
    1702                            .dwattr $C$DW$70, DW_AT_type(*$C$DW$T$27)
    1703                            .dwattr $C$DW$70, DW_AT_name("CRC_Failure")
    1704                            .dwattr $C$DW$70, DW_AT_TI_symbol_name("CRC_Failure")
    1705                            .dwattr $C$DW$70, DW_AT_data_member_location[DW_OP_plus_uconst 0x5]
    1706                            .dwattr $C$DW$70, DW_AT_accessibility(DW_ACCESS_public)
    1707                            .dwattr $C$DW$70, DW_AT_decl_file("..\common.h")
    1708                            .dwattr $C$DW$70, DW_AT_decl_line(0x1f)
    1709                            .dwattr $C$DW$70, DW_AT_decl_column(0x0d)
    1710                    
    1711                    $C$DW$71        .dwtag  DW_TAG_member
    1712                            .dwattr $C$DW$71, DW_AT_type(*$C$DW$T$27)
    1713                            .dwattr $C$DW$71, DW_AT_name("RX_Complete")
    1714                            .dwattr $C$DW$71, DW_AT_TI_symbol_name("RX_Complete")
    1715                            .dwattr $C$DW$71, DW_AT_data_member_location[DW_OP_plus_uconst 0x6]
    1716                            .dwattr $C$DW$71, DW_AT_accessibility(DW_ACCESS_public)
    1717                            .dwattr $C$DW$71, DW_AT_decl_file("..\common.h")
    1718                            .dwattr $C$DW$71, DW_AT_decl_line(0x20)
    1719                            .dwattr $C$DW$71, DW_AT_decl_column(0x0d)
    1720                    
    1721                    $C$DW$72        .dwtag  DW_TAG_member
    1722                            .dwattr $C$DW$72, DW_AT_type(*$C$DW$T$27)
    1723                            .dwattr $C$DW$72, DW_AT_name("response")
    1724                            .dwattr $C$DW$72, DW_AT_TI_symbol_name("response")
    1725                            .dwattr $C$DW$72, DW_AT_data_member_location[DW_OP_plus_uconst 0x7]
    1726                            .dwattr $C$DW$72, DW_AT_accessibility(DW_ACCESS_public)
    1727                            .dwattr $C$DW$72, DW_AT_decl_file("..\common.h")
    1728                            .dwattr $C$DW$72, DW_AT_decl_line(0x21)
    1729                            .dwattr $C$DW$72, DW_AT_decl_column(0x0d)
    1730                    
    1731                    $C$DW$73        .dwtag  DW_TAG_member
    1732                            .dwattr $C$DW$73, DW_AT_type(*$C$DW$T$27)
    1733                            .dwattr $C$DW$73, DW_AT_name("RX_Response")
    1734                            .dwattr $C$DW$73, DW_AT_TI_symbol_name("RX_Response")
    1735                            .dwattr $C$DW$73, DW_AT_data_member_location[DW_OP_plus_uconst 0x8]
    1736                            .dwattr $C$DW$73, DW_AT_accessibility(DW_ACCESS_public)
    1737                            .dwattr $C$DW$73, DW_AT_decl_file("..\common.h")
    1738                            .dwattr $C$DW$73, DW_AT_decl_line(0x22)
TI ARM Assembler PC v18.12.2 Sat Dec 14 17:40:32 2019

Copyright (c) 1996-2018 Texas Instruments Incorporated
BL_Master.asm                                                        PAGE   33

    1739                            .dwattr $C$DW$73, DW_AT_decl_column(0x0d)
    1740                    
    1741                    $C$DW$74        .dwtag  DW_TAG_member
    1742                            .dwattr $C$DW$74, DW_AT_type(*$C$DW$T$27)
    1743                            .dwattr $C$DW$74, DW_AT_name("TX_Flag")
    1744                            .dwattr $C$DW$74, DW_AT_TI_symbol_name("TX_Flag")
    1745                            .dwattr $C$DW$74, DW_AT_data_member_location[DW_OP_plus_uconst 0x9]
    1746                            .dwattr $C$DW$74, DW_AT_accessibility(DW_ACCESS_public)
    1747                            .dwattr $C$DW$74, DW_AT_decl_file("..\common.h")
    1748                            .dwattr $C$DW$74, DW_AT_decl_line(0x23)
    1749                            .dwattr $C$DW$74, DW_AT_decl_column(0x0d)
    1750                    
    1751                    $C$DW$75        .dwtag  DW_TAG_member
    1752                            .dwattr $C$DW$75, DW_AT_type(*$C$DW$T$27)
    1753                            .dwattr $C$DW$75, DW_AT_name("All_Ok")
    1754                            .dwattr $C$DW$75, DW_AT_TI_symbol_name("All_Ok")
    1755                            .dwattr $C$DW$75, DW_AT_data_member_location[DW_OP_plus_uconst 0xa]
    1756                            .dwattr $C$DW$75, DW_AT_accessibility(DW_ACCESS_public)
    1757                            .dwattr $C$DW$75, DW_AT_decl_file("..\common.h")
    1758                            .dwattr $C$DW$75, DW_AT_decl_line(0x24)
    1759                            .dwattr $C$DW$75, DW_AT_decl_column(0x0d)
    1760                    
    1761                            .dwattr $C$DW$T$30, DW_AT_decl_file("..\common.h")
    1762                            .dwattr $C$DW$T$30, DW_AT_decl_line(0x19)
    1763                            .dwattr $C$DW$T$30, DW_AT_decl_column(0x10)
    1764                            .dwendtag $C$DW$T$30
    1765                    
    1766                    $C$DW$T$199     .dwtag  DW_TAG_typedef
    1767                            .dwattr $C$DW$T$199, DW_AT_name("full_system_state_t")
    1768                            .dwattr $C$DW$T$199, DW_AT_type(*$C$DW$T$30)
    1769                            .dwattr $C$DW$T$199, DW_AT_language(DW_LANG_C)
    1770                            .dwattr $C$DW$T$199, DW_AT_decl_file("..\common.h")
    1771                            .dwattr $C$DW$T$199, DW_AT_decl_line(0x26)
    1772                            .dwattr $C$DW$T$199, DW_AT_decl_column(0x03)
    1773                    
    1774                    $C$DW$T$200     .dwtag  DW_TAG_pointer_type
    1775                            .dwattr $C$DW$T$200, DW_AT_type(*$C$DW$T$199)
    1776                            .dwattr $C$DW$T$200, DW_AT_address_class(0x20)
    1777                    
    1778                    
    1779                    $C$DW$T$35      .dwtag  DW_TAG_structure_type
    1780                            .dwattr $C$DW$T$35, DW_AT_byte_size(0x0e)
    1781                    $C$DW$76        .dwtag  DW_TAG_member
    1782                            .dwattr $C$DW$76, DW_AT_type(*$C$DW$T$33)
    1783                            .dwattr $C$DW$76, DW_AT_name("RESERVED0")
    1784                            .dwattr $C$DW$76, DW_AT_TI_symbol_name("RESERVED0")
    1785                            .dwattr $C$DW$76, DW_AT_data_member_location[DW_OP_plus_uconst 0x0]
    1786                            .dwattr $C$DW$76, DW_AT_accessibility(DW_ACCESS_public)
    1787                            .dwattr $C$DW$76, DW_AT_decl_file("C:\ti\simplelink_msp432p4_sdk_3_30_00_13\source\ti\devices\
    1788                            .dwattr $C$DW$76, DW_AT_decl_line(0x523)
    1789                            .dwattr $C$DW$76, DW_AT_decl_column(0x11)
    1790                    
    1791                    $C$DW$77        .dwtag  DW_TAG_member
    1792                            .dwattr $C$DW$77, DW_AT_type(*$C$DW$T$34)
    1793                            .dwattr $C$DW$77, DW_AT_name("CTL")
TI ARM Assembler PC v18.12.2 Sat Dec 14 17:40:32 2019

Copyright (c) 1996-2018 Texas Instruments Incorporated
BL_Master.asm                                                        PAGE   34

    1794                            .dwattr $C$DW$77, DW_AT_TI_symbol_name("CTL")
    1795                            .dwattr $C$DW$77, DW_AT_data_member_location[DW_OP_plus_uconst 0xc]
    1796                            .dwattr $C$DW$77, DW_AT_accessibility(DW_ACCESS_public)
    1797                            .dwattr $C$DW$77, DW_AT_decl_file("C:\ti\simplelink_msp432p4_sdk_3_30_00_13\source\ti\devices\
    1798                            .dwattr $C$DW$77, DW_AT_decl_line(0x524)
    1799                            .dwattr $C$DW$77, DW_AT_decl_column(0x11)
    1800                    
    1801                            .dwattr $C$DW$T$35, DW_AT_decl_file("C:\ti\simplelink_msp432p4_sdk_3_30_00_13\source\ti\device
    1802                            .dwattr $C$DW$T$35, DW_AT_decl_line(0x522)
    1803                            .dwattr $C$DW$T$35, DW_AT_decl_column(0x10)
    1804                            .dwendtag $C$DW$T$35
    1805                    
    1806                    $C$DW$T$201     .dwtag  DW_TAG_typedef
    1807                            .dwattr $C$DW$T$201, DW_AT_name("WDT_A_Type")
    1808                            .dwattr $C$DW$T$201, DW_AT_type(*$C$DW$T$35)
    1809                            .dwattr $C$DW$T$201, DW_AT_language(DW_LANG_C)
    1810                            .dwattr $C$DW$T$201, DW_AT_decl_file("C:\ti\simplelink_msp432p4_sdk_3_30_00_13\source\ti\devic
    1811                            .dwattr $C$DW$T$201, DW_AT_decl_line(0x525)
    1812                            .dwattr $C$DW$T$201, DW_AT_decl_column(0x03)
    1813                    
    1814                    
    1815                    $C$DW$T$42      .dwtag  DW_TAG_structure_type
    1816                            .dwattr $C$DW$T$42, DW_AT_byte_size(0x68)
    1817                    $C$DW$78        .dwtag  DW_TAG_member
    1818                            .dwattr $C$DW$78, DW_AT_type(*$C$DW$T$38)
    1819                            .dwattr $C$DW$78, DW_AT_name("KEY")
    1820                            .dwattr $C$DW$78, DW_AT_TI_symbol_name("KEY")
    1821                            .dwattr $C$DW$78, DW_AT_data_member_location[DW_OP_plus_uconst 0x0]
    1822                            .dwattr $C$DW$78, DW_AT_accessibility(DW_ACCESS_public)
    1823                            .dwattr $C$DW$78, DW_AT_decl_file("C:\ti\simplelink_msp432p4_sdk_3_30_00_13\source\ti\devices\
    1824                            .dwattr $C$DW$78, DW_AT_decl_line(0x1d9)
    1825                            .dwattr $C$DW$78, DW_AT_decl_column(0x11)
    1826                    
    1827                    $C$DW$79        .dwtag  DW_TAG_member
    1828                            .dwattr $C$DW$79, DW_AT_type(*$C$DW$T$38)
    1829                            .dwattr $C$DW$79, DW_AT_name("CTL0")
    1830                            .dwattr $C$DW$79, DW_AT_TI_symbol_name("CTL0")
    1831                            .dwattr $C$DW$79, DW_AT_data_member_location[DW_OP_plus_uconst 0x4]
    1832                            .dwattr $C$DW$79, DW_AT_accessibility(DW_ACCESS_public)
    1833                            .dwattr $C$DW$79, DW_AT_decl_file("C:\ti\simplelink_msp432p4_sdk_3_30_00_13\source\ti\devices\
    1834                            .dwattr $C$DW$79, DW_AT_decl_line(0x1da)
    1835                            .dwattr $C$DW$79, DW_AT_decl_column(0x11)
    1836                    
    1837                    $C$DW$80        .dwtag  DW_TAG_member
    1838                            .dwattr $C$DW$80, DW_AT_type(*$C$DW$T$38)
    1839                            .dwattr $C$DW$80, DW_AT_name("CTL1")
    1840                            .dwattr $C$DW$80, DW_AT_TI_symbol_name("CTL1")
    1841                            .dwattr $C$DW$80, DW_AT_data_member_location[DW_OP_plus_uconst 0x8]
    1842                            .dwattr $C$DW$80, DW_AT_accessibility(DW_ACCESS_public)
    1843                            .dwattr $C$DW$80, DW_AT_decl_file("C:\ti\simplelink_msp432p4_sdk_3_30_00_13\source\ti\devices\
    1844                            .dwattr $C$DW$80, DW_AT_decl_line(0x1db)
    1845                            .dwattr $C$DW$80, DW_AT_decl_column(0x11)
    1846                    
    1847                    $C$DW$81        .dwtag  DW_TAG_member
    1848                            .dwattr $C$DW$81, DW_AT_type(*$C$DW$T$38)
TI ARM Assembler PC v18.12.2 Sat Dec 14 17:40:32 2019

Copyright (c) 1996-2018 Texas Instruments Incorporated
BL_Master.asm                                                        PAGE   35

    1849                            .dwattr $C$DW$81, DW_AT_name("CTL2")
    1850                            .dwattr $C$DW$81, DW_AT_TI_symbol_name("CTL2")
    1851                            .dwattr $C$DW$81, DW_AT_data_member_location[DW_OP_plus_uconst 0xc]
    1852                            .dwattr $C$DW$81, DW_AT_accessibility(DW_ACCESS_public)
    1853                            .dwattr $C$DW$81, DW_AT_decl_file("C:\ti\simplelink_msp432p4_sdk_3_30_00_13\source\ti\devices\
    1854                            .dwattr $C$DW$81, DW_AT_decl_line(0x1dc)
    1855                            .dwattr $C$DW$81, DW_AT_decl_column(0x11)
    1856                    
    1857                    $C$DW$82        .dwtag  DW_TAG_member
    1858                            .dwattr $C$DW$82, DW_AT_type(*$C$DW$T$38)
    1859                            .dwattr $C$DW$82, DW_AT_name("CTL3")
    1860                            .dwattr $C$DW$82, DW_AT_TI_symbol_name("CTL3")
    1861                            .dwattr $C$DW$82, DW_AT_data_member_location[DW_OP_plus_uconst 0x10]
    1862                            .dwattr $C$DW$82, DW_AT_accessibility(DW_ACCESS_public)
    1863                            .dwattr $C$DW$82, DW_AT_decl_file("C:\ti\simplelink_msp432p4_sdk_3_30_00_13\source\ti\devices\
    1864                            .dwattr $C$DW$82, DW_AT_decl_line(0x1dd)
    1865                            .dwattr $C$DW$82, DW_AT_decl_column(0x11)
    1866                    
    1867                    $C$DW$83        .dwtag  DW_TAG_member
    1868                            .dwattr $C$DW$83, DW_AT_type(*$C$DW$T$39)
    1869                            .dwattr $C$DW$83, DW_AT_name("RESERVED0")
    1870                            .dwattr $C$DW$83, DW_AT_TI_symbol_name("RESERVED0")
    1871                            .dwattr $C$DW$83, DW_AT_data_member_location[DW_OP_plus_uconst 0x14]
    1872                            .dwattr $C$DW$83, DW_AT_accessibility(DW_ACCESS_public)
    1873                            .dwattr $C$DW$83, DW_AT_decl_file("C:\ti\simplelink_msp432p4_sdk_3_30_00_13\source\ti\devices\
    1874                            .dwattr $C$DW$83, DW_AT_decl_line(0x1de)
    1875                            .dwattr $C$DW$83, DW_AT_decl_column(0x11)
    1876                    
    1877                    $C$DW$84        .dwtag  DW_TAG_member
    1878                            .dwattr $C$DW$84, DW_AT_type(*$C$DW$T$38)
    1879                            .dwattr $C$DW$84, DW_AT_name("CLKEN")
    1880                            .dwattr $C$DW$84, DW_AT_TI_symbol_name("CLKEN")
    1881                            .dwattr $C$DW$84, DW_AT_data_member_location[DW_OP_plus_uconst 0x30]
    1882                            .dwattr $C$DW$84, DW_AT_accessibility(DW_ACCESS_public)
    1883                            .dwattr $C$DW$84, DW_AT_decl_file("C:\ti\simplelink_msp432p4_sdk_3_30_00_13\source\ti\devices\
    1884                            .dwattr $C$DW$84, DW_AT_decl_line(0x1df)
    1885                            .dwattr $C$DW$84, DW_AT_decl_column(0x11)
    1886                    
    1887                    $C$DW$85        .dwtag  DW_TAG_member
    1888                            .dwattr $C$DW$85, DW_AT_type(*$C$DW$T$40)
    1889                            .dwattr $C$DW$85, DW_AT_name("STAT")
    1890                            .dwattr $C$DW$85, DW_AT_TI_symbol_name("STAT")
    1891                            .dwattr $C$DW$85, DW_AT_data_member_location[DW_OP_plus_uconst 0x34]
    1892                            .dwattr $C$DW$85, DW_AT_accessibility(DW_ACCESS_public)
    1893                            .dwattr $C$DW$85, DW_AT_decl_file("C:\ti\simplelink_msp432p4_sdk_3_30_00_13\source\ti\devices\
    1894                            .dwattr $C$DW$85, DW_AT_decl_line(0x1e0)
    1895                            .dwattr $C$DW$85, DW_AT_decl_column(0x11)
    1896                    
    1897                    $C$DW$86        .dwtag  DW_TAG_member
    1898                            .dwattr $C$DW$86, DW_AT_type(*$C$DW$T$41)
    1899                            .dwattr $C$DW$86, DW_AT_name("RESERVED1")
    1900                            .dwattr $C$DW$86, DW_AT_TI_symbol_name("RESERVED1")
    1901                            .dwattr $C$DW$86, DW_AT_data_member_location[DW_OP_plus_uconst 0x38]
    1902                            .dwattr $C$DW$86, DW_AT_accessibility(DW_ACCESS_public)
    1903                            .dwattr $C$DW$86, DW_AT_decl_file("C:\ti\simplelink_msp432p4_sdk_3_30_00_13\source\ti\devices\
TI ARM Assembler PC v18.12.2 Sat Dec 14 17:40:32 2019

Copyright (c) 1996-2018 Texas Instruments Incorporated
BL_Master.asm                                                        PAGE   36

    1904                            .dwattr $C$DW$86, DW_AT_decl_line(0x1e1)
    1905                            .dwattr $C$DW$86, DW_AT_decl_column(0x11)
    1906                    
    1907                    $C$DW$87        .dwtag  DW_TAG_member
    1908                            .dwattr $C$DW$87, DW_AT_type(*$C$DW$T$38)
    1909                            .dwattr $C$DW$87, DW_AT_name("IE")
    1910                            .dwattr $C$DW$87, DW_AT_TI_symbol_name("IE")
    1911                            .dwattr $C$DW$87, DW_AT_data_member_location[DW_OP_plus_uconst 0x40]
    1912                            .dwattr $C$DW$87, DW_AT_accessibility(DW_ACCESS_public)
    1913                            .dwattr $C$DW$87, DW_AT_decl_file("C:\ti\simplelink_msp432p4_sdk_3_30_00_13\source\ti\devices\
    1914                            .dwattr $C$DW$87, DW_AT_decl_line(0x1e2)
    1915                            .dwattr $C$DW$87, DW_AT_decl_column(0x11)
    1916                    
    1917                    $C$DW$88        .dwtag  DW_TAG_member
    1918                            .dwattr $C$DW$88, DW_AT_type(*$C$DW$T$37)
    1919                            .dwattr $C$DW$88, DW_AT_name("RESERVED2")
    1920                            .dwattr $C$DW$88, DW_AT_TI_symbol_name("RESERVED2")
    1921                            .dwattr $C$DW$88, DW_AT_data_member_location[DW_OP_plus_uconst 0x44]
    1922                            .dwattr $C$DW$88, DW_AT_accessibility(DW_ACCESS_public)
    1923                            .dwattr $C$DW$88, DW_AT_decl_file("C:\ti\simplelink_msp432p4_sdk_3_30_00_13\source\ti\devices\
    1924                            .dwattr $C$DW$88, DW_AT_decl_line(0x1e3)
    1925                            .dwattr $C$DW$88, DW_AT_decl_column(0x11)
    1926                    
    1927                    $C$DW$89        .dwtag  DW_TAG_member
    1928                            .dwattr $C$DW$89, DW_AT_type(*$C$DW$T$40)
    1929                            .dwattr $C$DW$89, DW_AT_name("IFG")
    1930                            .dwattr $C$DW$89, DW_AT_TI_symbol_name("IFG")
    1931                            .dwattr $C$DW$89, DW_AT_data_member_location[DW_OP_plus_uconst 0x48]
    1932                            .dwattr $C$DW$89, DW_AT_accessibility(DW_ACCESS_public)
    1933                            .dwattr $C$DW$89, DW_AT_decl_file("C:\ti\simplelink_msp432p4_sdk_3_30_00_13\source\ti\devices\
    1934                            .dwattr $C$DW$89, DW_AT_decl_line(0x1e4)
    1935                            .dwattr $C$DW$89, DW_AT_decl_column(0x11)
    1936                    
    1937                    $C$DW$90        .dwtag  DW_TAG_member
    1938                            .dwattr $C$DW$90, DW_AT_type(*$C$DW$T$37)
    1939                            .dwattr $C$DW$90, DW_AT_name("RESERVED3")
    1940                            .dwattr $C$DW$90, DW_AT_TI_symbol_name("RESERVED3")
    1941                            .dwattr $C$DW$90, DW_AT_data_member_location[DW_OP_plus_uconst 0x4c]
    1942                            .dwattr $C$DW$90, DW_AT_accessibility(DW_ACCESS_public)
    1943                            .dwattr $C$DW$90, DW_AT_decl_file("C:\ti\simplelink_msp432p4_sdk_3_30_00_13\source\ti\devices\
    1944                            .dwattr $C$DW$90, DW_AT_decl_line(0x1e5)
    1945                            .dwattr $C$DW$90, DW_AT_decl_column(0x11)
    1946                    
    1947                    $C$DW$91        .dwtag  DW_TAG_member
    1948                            .dwattr $C$DW$91, DW_AT_type(*$C$DW$T$38)
    1949                            .dwattr $C$DW$91, DW_AT_name("CLRIFG")
    1950                            .dwattr $C$DW$91, DW_AT_TI_symbol_name("CLRIFG")
    1951                            .dwattr $C$DW$91, DW_AT_data_member_location[DW_OP_plus_uconst 0x50]
    1952                            .dwattr $C$DW$91, DW_AT_accessibility(DW_ACCESS_public)
    1953                            .dwattr $C$DW$91, DW_AT_decl_file("C:\ti\simplelink_msp432p4_sdk_3_30_00_13\source\ti\devices\
    1954                            .dwattr $C$DW$91, DW_AT_decl_line(0x1e6)
    1955                            .dwattr $C$DW$91, DW_AT_decl_column(0x11)
    1956                    
    1957                    $C$DW$92        .dwtag  DW_TAG_member
    1958                            .dwattr $C$DW$92, DW_AT_type(*$C$DW$T$37)
TI ARM Assembler PC v18.12.2 Sat Dec 14 17:40:32 2019

Copyright (c) 1996-2018 Texas Instruments Incorporated
BL_Master.asm                                                        PAGE   37

    1959                            .dwattr $C$DW$92, DW_AT_name("RESERVED4")
    1960                            .dwattr $C$DW$92, DW_AT_TI_symbol_name("RESERVED4")
    1961                            .dwattr $C$DW$92, DW_AT_data_member_location[DW_OP_plus_uconst 0x54]
    1962                            .dwattr $C$DW$92, DW_AT_accessibility(DW_ACCESS_public)
    1963                            .dwattr $C$DW$92, DW_AT_decl_file("C:\ti\simplelink_msp432p4_sdk_3_30_00_13\source\ti\devices\
    1964                            .dwattr $C$DW$92, DW_AT_decl_line(0x1e7)
    1965                            .dwattr $C$DW$92, DW_AT_decl_column(0x11)
    1966                    
    1967                    $C$DW$93        .dwtag  DW_TAG_member
    1968                            .dwattr $C$DW$93, DW_AT_type(*$C$DW$T$38)
    1969                            .dwattr $C$DW$93, DW_AT_name("SETIFG")
    1970                            .dwattr $C$DW$93, DW_AT_TI_symbol_name("SETIFG")
    1971                            .dwattr $C$DW$93, DW_AT_data_member_location[DW_OP_plus_uconst 0x58]
    1972                            .dwattr $C$DW$93, DW_AT_accessibility(DW_ACCESS_public)
    1973                            .dwattr $C$DW$93, DW_AT_decl_file("C:\ti\simplelink_msp432p4_sdk_3_30_00_13\source\ti\devices\
    1974                            .dwattr $C$DW$93, DW_AT_decl_line(0x1e8)
    1975                            .dwattr $C$DW$93, DW_AT_decl_column(0x11)
    1976                    
    1977                    $C$DW$94        .dwtag  DW_TAG_member
    1978                            .dwattr $C$DW$94, DW_AT_type(*$C$DW$T$37)
    1979                            .dwattr $C$DW$94, DW_AT_name("RESERVED5")
    1980                            .dwattr $C$DW$94, DW_AT_TI_symbol_name("RESERVED5")
    1981                            .dwattr $C$DW$94, DW_AT_data_member_location[DW_OP_plus_uconst 0x5c]
    1982                            .dwattr $C$DW$94, DW_AT_accessibility(DW_ACCESS_public)
    1983                            .dwattr $C$DW$94, DW_AT_decl_file("C:\ti\simplelink_msp432p4_sdk_3_30_00_13\source\ti\devices\
    1984                            .dwattr $C$DW$94, DW_AT_decl_line(0x1e9)
    1985                            .dwattr $C$DW$94, DW_AT_decl_column(0x11)
    1986                    
    1987                    $C$DW$95        .dwtag  DW_TAG_member
    1988                            .dwattr $C$DW$95, DW_AT_type(*$C$DW$T$38)
    1989                            .dwattr $C$DW$95, DW_AT_name("DCOERCAL0")
    1990                            .dwattr $C$DW$95, DW_AT_TI_symbol_name("DCOERCAL0")
    1991                            .dwattr $C$DW$95, DW_AT_data_member_location[DW_OP_plus_uconst 0x60]
    1992                            .dwattr $C$DW$95, DW_AT_accessibility(DW_ACCESS_public)
    1993                            .dwattr $C$DW$95, DW_AT_decl_file("C:\ti\simplelink_msp432p4_sdk_3_30_00_13\source\ti\devices\
    1994                            .dwattr $C$DW$95, DW_AT_decl_line(0x1ea)
    1995                            .dwattr $C$DW$95, DW_AT_decl_column(0x11)
    1996                    
    1997                    $C$DW$96        .dwtag  DW_TAG_member
    1998                            .dwattr $C$DW$96, DW_AT_type(*$C$DW$T$38)
    1999                            .dwattr $C$DW$96, DW_AT_name("DCOERCAL1")
    2000                            .dwattr $C$DW$96, DW_AT_TI_symbol_name("DCOERCAL1")
    2001                            .dwattr $C$DW$96, DW_AT_data_member_location[DW_OP_plus_uconst 0x64]
    2002                            .dwattr $C$DW$96, DW_AT_accessibility(DW_ACCESS_public)
    2003                            .dwattr $C$DW$96, DW_AT_decl_file("C:\ti\simplelink_msp432p4_sdk_3_30_00_13\source\ti\devices\
    2004                            .dwattr $C$DW$96, DW_AT_decl_line(0x1eb)
    2005                            .dwattr $C$DW$96, DW_AT_decl_column(0x11)
    2006                    
    2007                            .dwattr $C$DW$T$42, DW_AT_decl_file("C:\ti\simplelink_msp432p4_sdk_3_30_00_13\source\ti\device
    2008                            .dwattr $C$DW$T$42, DW_AT_decl_line(0x1d8)
    2009                            .dwattr $C$DW$T$42, DW_AT_decl_column(0x10)
    2010                            .dwendtag $C$DW$T$42
    2011                    
    2012                    $C$DW$T$203     .dwtag  DW_TAG_typedef
    2013                            .dwattr $C$DW$T$203, DW_AT_name("CS_Type")
TI ARM Assembler PC v18.12.2 Sat Dec 14 17:40:32 2019

Copyright (c) 1996-2018 Texas Instruments Incorporated
BL_Master.asm                                                        PAGE   38

    2014                            .dwattr $C$DW$T$203, DW_AT_type(*$C$DW$T$42)
    2015                            .dwattr $C$DW$T$203, DW_AT_language(DW_LANG_C)
    2016                            .dwattr $C$DW$T$203, DW_AT_decl_file("C:\ti\simplelink_msp432p4_sdk_3_30_00_13\source\ti\devic
    2017                            .dwattr $C$DW$T$203, DW_AT_decl_line(0x1ec)
    2018                            .dwattr $C$DW$T$203, DW_AT_decl_column(0x03)
    2019                    
    2020                    
    2021                    $C$DW$T$47      .dwtag  DW_TAG_structure_type
    2022                            .dwattr $C$DW$T$47, DW_AT_byte_size(0x1e)
    2023                    $C$DW$97        .dwtag  DW_TAG_member
    2024                            .dwattr $C$DW$97, DW_AT_type(*$C$DW$T$43)
    2025                            .dwattr $C$DW$97, DW_AT_name("IN")
    2026                            .dwattr $C$DW$97, DW_AT_TI_symbol_name("IN")
    2027                            .dwattr $C$DW$97, DW_AT_data_member_location[DW_OP_plus_uconst 0x0]
    2028                            .dwattr $C$DW$97, DW_AT_accessibility(DW_ACCESS_public)
    2029                            .dwattr $C$DW$97, DW_AT_decl_file("C:\ti\simplelink_msp432p4_sdk_3_30_00_13\source\ti\devices\
    2030                            .dwattr $C$DW$97, DW_AT_decl_line(0x288)
    2031                            .dwattr $C$DW$97, DW_AT_decl_column(0x0f)
    2032                    
    2033                    $C$DW$98        .dwtag  DW_TAG_member
    2034                            .dwattr $C$DW$98, DW_AT_type(*$C$DW$T$27)
    2035                            .dwattr $C$DW$98, DW_AT_name("RESERVED0")
    2036                            .dwattr $C$DW$98, DW_AT_TI_symbol_name("RESERVED0")
    2037                            .dwattr $C$DW$98, DW_AT_data_member_location[DW_OP_plus_uconst 0x1]
    2038                            .dwattr $C$DW$98, DW_AT_accessibility(DW_ACCESS_public)
    2039                            .dwattr $C$DW$98, DW_AT_decl_file("C:\ti\simplelink_msp432p4_sdk_3_30_00_13\source\ti\devices\
    2040                            .dwattr $C$DW$98, DW_AT_decl_line(0x289)
    2041                            .dwattr $C$DW$98, DW_AT_decl_column(0x0b)
    2042                    
    2043                    $C$DW$99        .dwtag  DW_TAG_member
    2044                            .dwattr $C$DW$99, DW_AT_type(*$C$DW$T$44)
    2045                            .dwattr $C$DW$99, DW_AT_name("OUT")
    2046                            .dwattr $C$DW$99, DW_AT_TI_symbol_name("OUT")
    2047                            .dwattr $C$DW$99, DW_AT_data_member_location[DW_OP_plus_uconst 0x2]
    2048                            .dwattr $C$DW$99, DW_AT_accessibility(DW_ACCESS_public)
    2049                            .dwattr $C$DW$99, DW_AT_decl_file("C:\ti\simplelink_msp432p4_sdk_3_30_00_13\source\ti\devices\
    2050                            .dwattr $C$DW$99, DW_AT_decl_line(0x28a)
    2051                            .dwattr $C$DW$99, DW_AT_decl_column(0x10)
    2052                    
    2053                    $C$DW$100       .dwtag  DW_TAG_member
    2054                            .dwattr $C$DW$100, DW_AT_type(*$C$DW$T$27)
    2055                            .dwattr $C$DW$100, DW_AT_name("RESERVED1")
    2056                            .dwattr $C$DW$100, DW_AT_TI_symbol_name("RESERVED1")
    2057                            .dwattr $C$DW$100, DW_AT_data_member_location[DW_OP_plus_uconst 0x3]
    2058                            .dwattr $C$DW$100, DW_AT_accessibility(DW_ACCESS_public)
    2059                            .dwattr $C$DW$100, DW_AT_decl_file("C:\ti\simplelink_msp432p4_sdk_3_30_00_13\source\ti\devices
    2060                            .dwattr $C$DW$100, DW_AT_decl_line(0x28b)
    2061                            .dwattr $C$DW$100, DW_AT_decl_column(0x0b)
    2062                    
    2063                    $C$DW$101       .dwtag  DW_TAG_member
    2064                            .dwattr $C$DW$101, DW_AT_type(*$C$DW$T$44)
    2065                            .dwattr $C$DW$101, DW_AT_name("DIR")
    2066                            .dwattr $C$DW$101, DW_AT_TI_symbol_name("DIR")
    2067                            .dwattr $C$DW$101, DW_AT_data_member_location[DW_OP_plus_uconst 0x4]
    2068                            .dwattr $C$DW$101, DW_AT_accessibility(DW_ACCESS_public)
TI ARM Assembler PC v18.12.2 Sat Dec 14 17:40:32 2019

Copyright (c) 1996-2018 Texas Instruments Incorporated
BL_Master.asm                                                        PAGE   39

    2069                            .dwattr $C$DW$101, DW_AT_decl_file("C:\ti\simplelink_msp432p4_sdk_3_30_00_13\source\ti\devices
    2070                            .dwattr $C$DW$101, DW_AT_decl_line(0x28c)
    2071                            .dwattr $C$DW$101, DW_AT_decl_column(0x10)
    2072                    
    2073                    $C$DW$102       .dwtag  DW_TAG_member
    2074                            .dwattr $C$DW$102, DW_AT_type(*$C$DW$T$27)
    2075                            .dwattr $C$DW$102, DW_AT_name("RESERVED2")
    2076                            .dwattr $C$DW$102, DW_AT_TI_symbol_name("RESERVED2")
    2077                            .dwattr $C$DW$102, DW_AT_data_member_location[DW_OP_plus_uconst 0x5]
    2078                            .dwattr $C$DW$102, DW_AT_accessibility(DW_ACCESS_public)
    2079                            .dwattr $C$DW$102, DW_AT_decl_file("C:\ti\simplelink_msp432p4_sdk_3_30_00_13\source\ti\devices
    2080                            .dwattr $C$DW$102, DW_AT_decl_line(0x28d)
    2081                            .dwattr $C$DW$102, DW_AT_decl_column(0x0b)
    2082                    
    2083                    $C$DW$103       .dwtag  DW_TAG_member
    2084                            .dwattr $C$DW$103, DW_AT_type(*$C$DW$T$44)
    2085                            .dwattr $C$DW$103, DW_AT_name("REN")
    2086                            .dwattr $C$DW$103, DW_AT_TI_symbol_name("REN")
    2087                            .dwattr $C$DW$103, DW_AT_data_member_location[DW_OP_plus_uconst 0x6]
    2088                            .dwattr $C$DW$103, DW_AT_accessibility(DW_ACCESS_public)
    2089                            .dwattr $C$DW$103, DW_AT_decl_file("C:\ti\simplelink_msp432p4_sdk_3_30_00_13\source\ti\devices
    2090                            .dwattr $C$DW$103, DW_AT_decl_line(0x28e)
    2091                            .dwattr $C$DW$103, DW_AT_decl_column(0x10)
    2092                    
    2093                    $C$DW$104       .dwtag  DW_TAG_member
    2094                            .dwattr $C$DW$104, DW_AT_type(*$C$DW$T$27)
    2095                            .dwattr $C$DW$104, DW_AT_name("RESERVED3")
    2096                            .dwattr $C$DW$104, DW_AT_TI_symbol_name("RESERVED3")
    2097                            .dwattr $C$DW$104, DW_AT_data_member_location[DW_OP_plus_uconst 0x7]
    2098                            .dwattr $C$DW$104, DW_AT_accessibility(DW_ACCESS_public)
    2099                            .dwattr $C$DW$104, DW_AT_decl_file("C:\ti\simplelink_msp432p4_sdk_3_30_00_13\source\ti\devices
    2100                            .dwattr $C$DW$104, DW_AT_decl_line(0x28f)
    2101                            .dwattr $C$DW$104, DW_AT_decl_column(0x0b)
    2102                    
    2103                    $C$DW$105       .dwtag  DW_TAG_member
    2104                            .dwattr $C$DW$105, DW_AT_type(*$C$DW$T$44)
    2105                            .dwattr $C$DW$105, DW_AT_name("DS")
    2106                            .dwattr $C$DW$105, DW_AT_TI_symbol_name("DS")
    2107                            .dwattr $C$DW$105, DW_AT_data_member_location[DW_OP_plus_uconst 0x8]
    2108                            .dwattr $C$DW$105, DW_AT_accessibility(DW_ACCESS_public)
    2109                            .dwattr $C$DW$105, DW_AT_decl_file("C:\ti\simplelink_msp432p4_sdk_3_30_00_13\source\ti\devices
    2110                            .dwattr $C$DW$105, DW_AT_decl_line(0x290)
    2111                            .dwattr $C$DW$105, DW_AT_decl_column(0x10)
    2112                    
    2113                    $C$DW$106       .dwtag  DW_TAG_member
    2114                            .dwattr $C$DW$106, DW_AT_type(*$C$DW$T$27)
    2115                            .dwattr $C$DW$106, DW_AT_name("RESERVED4")
    2116                            .dwattr $C$DW$106, DW_AT_TI_symbol_name("RESERVED4")
    2117                            .dwattr $C$DW$106, DW_AT_data_member_location[DW_OP_plus_uconst 0x9]
    2118                            .dwattr $C$DW$106, DW_AT_accessibility(DW_ACCESS_public)
    2119                            .dwattr $C$DW$106, DW_AT_decl_file("C:\ti\simplelink_msp432p4_sdk_3_30_00_13\source\ti\devices
    2120                            .dwattr $C$DW$106, DW_AT_decl_line(0x291)
    2121                            .dwattr $C$DW$106, DW_AT_decl_column(0x0b)
    2122                    
    2123                    $C$DW$107       .dwtag  DW_TAG_member
TI ARM Assembler PC v18.12.2 Sat Dec 14 17:40:32 2019

Copyright (c) 1996-2018 Texas Instruments Incorporated
BL_Master.asm                                                        PAGE   40

    2124                            .dwattr $C$DW$107, DW_AT_type(*$C$DW$T$44)
    2125                            .dwattr $C$DW$107, DW_AT_name("SEL0")
    2126                            .dwattr $C$DW$107, DW_AT_TI_symbol_name("SEL0")
    2127                            .dwattr $C$DW$107, DW_AT_data_member_location[DW_OP_plus_uconst 0xa]
    2128                            .dwattr $C$DW$107, DW_AT_accessibility(DW_ACCESS_public)
    2129                            .dwattr $C$DW$107, DW_AT_decl_file("C:\ti\simplelink_msp432p4_sdk_3_30_00_13\source\ti\devices
    2130                            .dwattr $C$DW$107, DW_AT_decl_line(0x292)
    2131                            .dwattr $C$DW$107, DW_AT_decl_column(0x10)
    2132                    
    2133                    $C$DW$108       .dwtag  DW_TAG_member
    2134                            .dwattr $C$DW$108, DW_AT_type(*$C$DW$T$27)
    2135                            .dwattr $C$DW$108, DW_AT_name("RESERVED5")
    2136                            .dwattr $C$DW$108, DW_AT_TI_symbol_name("RESERVED5")
    2137                            .dwattr $C$DW$108, DW_AT_data_member_location[DW_OP_plus_uconst 0xb]
    2138                            .dwattr $C$DW$108, DW_AT_accessibility(DW_ACCESS_public)
    2139                            .dwattr $C$DW$108, DW_AT_decl_file("C:\ti\simplelink_msp432p4_sdk_3_30_00_13\source\ti\devices
    2140                            .dwattr $C$DW$108, DW_AT_decl_line(0x293)
    2141                            .dwattr $C$DW$108, DW_AT_decl_column(0x0b)
    2142                    
    2143                    $C$DW$109       .dwtag  DW_TAG_member
    2144                            .dwattr $C$DW$109, DW_AT_type(*$C$DW$T$44)
    2145                            .dwattr $C$DW$109, DW_AT_name("SEL1")
    2146                            .dwattr $C$DW$109, DW_AT_TI_symbol_name("SEL1")
    2147                            .dwattr $C$DW$109, DW_AT_data_member_location[DW_OP_plus_uconst 0xc]
    2148                            .dwattr $C$DW$109, DW_AT_accessibility(DW_ACCESS_public)
    2149                            .dwattr $C$DW$109, DW_AT_decl_file("C:\ti\simplelink_msp432p4_sdk_3_30_00_13\source\ti\devices
    2150                            .dwattr $C$DW$109, DW_AT_decl_line(0x294)
    2151                            .dwattr $C$DW$109, DW_AT_decl_column(0x10)
    2152                    
    2153                    $C$DW$110       .dwtag  DW_TAG_member
    2154                            .dwattr $C$DW$110, DW_AT_type(*$C$DW$T$27)
    2155                            .dwattr $C$DW$110, DW_AT_name("RESERVED6")
    2156                            .dwattr $C$DW$110, DW_AT_TI_symbol_name("RESERVED6")
    2157                            .dwattr $C$DW$110, DW_AT_data_member_location[DW_OP_plus_uconst 0xd]
    2158                            .dwattr $C$DW$110, DW_AT_accessibility(DW_ACCESS_public)
    2159                            .dwattr $C$DW$110, DW_AT_decl_file("C:\ti\simplelink_msp432p4_sdk_3_30_00_13\source\ti\devices
    2160                            .dwattr $C$DW$110, DW_AT_decl_line(0x295)
    2161                            .dwattr $C$DW$110, DW_AT_decl_column(0x0b)
    2162                    
    2163                    $C$DW$111       .dwtag  DW_TAG_member
    2164                            .dwattr $C$DW$111, DW_AT_type(*$C$DW$T$45)
    2165                            .dwattr $C$DW$111, DW_AT_name("IV")
    2166                            .dwattr $C$DW$111, DW_AT_TI_symbol_name("IV")
    2167                            .dwattr $C$DW$111, DW_AT_data_member_location[DW_OP_plus_uconst 0xe]
    2168                            .dwattr $C$DW$111, DW_AT_accessibility(DW_ACCESS_public)
    2169                            .dwattr $C$DW$111, DW_AT_decl_file("C:\ti\simplelink_msp432p4_sdk_3_30_00_13\source\ti\devices
    2170                            .dwattr $C$DW$111, DW_AT_decl_line(0x296)
    2171                            .dwattr $C$DW$111, DW_AT_decl_column(0x11)
    2172                    
    2173                    $C$DW$112       .dwtag  DW_TAG_member
    2174                            .dwattr $C$DW$112, DW_AT_type(*$C$DW$T$46)
    2175                            .dwattr $C$DW$112, DW_AT_name("RESERVED7")
    2176                            .dwattr $C$DW$112, DW_AT_TI_symbol_name("RESERVED7")
    2177                            .dwattr $C$DW$112, DW_AT_data_member_location[DW_OP_plus_uconst 0x10]
    2178                            .dwattr $C$DW$112, DW_AT_accessibility(DW_ACCESS_public)
TI ARM Assembler PC v18.12.2 Sat Dec 14 17:40:32 2019

Copyright (c) 1996-2018 Texas Instruments Incorporated
BL_Master.asm                                                        PAGE   41

    2179                            .dwattr $C$DW$112, DW_AT_decl_file("C:\ti\simplelink_msp432p4_sdk_3_30_00_13\source\ti\devices
    2180                            .dwattr $C$DW$112, DW_AT_decl_line(0x297)
    2181                            .dwattr $C$DW$112, DW_AT_decl_column(0x0b)
    2182                    
    2183                    $C$DW$113       .dwtag  DW_TAG_member
    2184                            .dwattr $C$DW$113, DW_AT_type(*$C$DW$T$44)
    2185                            .dwattr $C$DW$113, DW_AT_name("SELC")
    2186                            .dwattr $C$DW$113, DW_AT_TI_symbol_name("SELC")
    2187                            .dwattr $C$DW$113, DW_AT_data_member_location[DW_OP_plus_uconst 0x16]
    2188                            .dwattr $C$DW$113, DW_AT_accessibility(DW_ACCESS_public)
    2189                            .dwattr $C$DW$113, DW_AT_decl_file("C:\ti\simplelink_msp432p4_sdk_3_30_00_13\source\ti\devices
    2190                            .dwattr $C$DW$113, DW_AT_decl_line(0x298)
    2191                            .dwattr $C$DW$113, DW_AT_decl_column(0x10)
    2192                    
    2193                    $C$DW$114       .dwtag  DW_TAG_member
    2194                            .dwattr $C$DW$114, DW_AT_type(*$C$DW$T$27)
    2195                            .dwattr $C$DW$114, DW_AT_name("RESERVED8")
    2196                            .dwattr $C$DW$114, DW_AT_TI_symbol_name("RESERVED8")
    2197                            .dwattr $C$DW$114, DW_AT_data_member_location[DW_OP_plus_uconst 0x17]
    2198                            .dwattr $C$DW$114, DW_AT_accessibility(DW_ACCESS_public)
    2199                            .dwattr $C$DW$114, DW_AT_decl_file("C:\ti\simplelink_msp432p4_sdk_3_30_00_13\source\ti\devices
    2200                            .dwattr $C$DW$114, DW_AT_decl_line(0x299)
    2201                            .dwattr $C$DW$114, DW_AT_decl_column(0x0b)
    2202                    
    2203                    $C$DW$115       .dwtag  DW_TAG_member
    2204                            .dwattr $C$DW$115, DW_AT_type(*$C$DW$T$44)
    2205                            .dwattr $C$DW$115, DW_AT_name("IES")
    2206                            .dwattr $C$DW$115, DW_AT_TI_symbol_name("IES")
    2207                            .dwattr $C$DW$115, DW_AT_data_member_location[DW_OP_plus_uconst 0x18]
    2208                            .dwattr $C$DW$115, DW_AT_accessibility(DW_ACCESS_public)
    2209                            .dwattr $C$DW$115, DW_AT_decl_file("C:\ti\simplelink_msp432p4_sdk_3_30_00_13\source\ti\devices
    2210                            .dwattr $C$DW$115, DW_AT_decl_line(0x29a)
    2211                            .dwattr $C$DW$115, DW_AT_decl_column(0x10)
    2212                    
    2213                    $C$DW$116       .dwtag  DW_TAG_member
    2214                            .dwattr $C$DW$116, DW_AT_type(*$C$DW$T$27)
    2215                            .dwattr $C$DW$116, DW_AT_name("RESERVED9")
    2216                            .dwattr $C$DW$116, DW_AT_TI_symbol_name("RESERVED9")
    2217                            .dwattr $C$DW$116, DW_AT_data_member_location[DW_OP_plus_uconst 0x19]
    2218                            .dwattr $C$DW$116, DW_AT_accessibility(DW_ACCESS_public)
    2219                            .dwattr $C$DW$116, DW_AT_decl_file("C:\ti\simplelink_msp432p4_sdk_3_30_00_13\source\ti\devices
    2220                            .dwattr $C$DW$116, DW_AT_decl_line(0x29b)
    2221                            .dwattr $C$DW$116, DW_AT_decl_column(0x0b)
    2222                    
    2223                    $C$DW$117       .dwtag  DW_TAG_member
    2224                            .dwattr $C$DW$117, DW_AT_type(*$C$DW$T$44)
    2225                            .dwattr $C$DW$117, DW_AT_name("IE")
    2226                            .dwattr $C$DW$117, DW_AT_TI_symbol_name("IE")
    2227                            .dwattr $C$DW$117, DW_AT_data_member_location[DW_OP_plus_uconst 0x1a]
    2228                            .dwattr $C$DW$117, DW_AT_accessibility(DW_ACCESS_public)
    2229                            .dwattr $C$DW$117, DW_AT_decl_file("C:\ti\simplelink_msp432p4_sdk_3_30_00_13\source\ti\devices
    2230                            .dwattr $C$DW$117, DW_AT_decl_line(0x29c)
    2231                            .dwattr $C$DW$117, DW_AT_decl_column(0x10)
    2232                    
    2233                    $C$DW$118       .dwtag  DW_TAG_member
TI ARM Assembler PC v18.12.2 Sat Dec 14 17:40:32 2019

Copyright (c) 1996-2018 Texas Instruments Incorporated
BL_Master.asm                                                        PAGE   42

    2234                            .dwattr $C$DW$118, DW_AT_type(*$C$DW$T$27)
    2235                            .dwattr $C$DW$118, DW_AT_name("RESERVED10")
    2236                            .dwattr $C$DW$118, DW_AT_TI_symbol_name("RESERVED10")
    2237                            .dwattr $C$DW$118, DW_AT_data_member_location[DW_OP_plus_uconst 0x1b]
    2238                            .dwattr $C$DW$118, DW_AT_accessibility(DW_ACCESS_public)
    2239                            .dwattr $C$DW$118, DW_AT_decl_file("C:\ti\simplelink_msp432p4_sdk_3_30_00_13\source\ti\devices
    2240                            .dwattr $C$DW$118, DW_AT_decl_line(0x29d)
    2241                            .dwattr $C$DW$118, DW_AT_decl_column(0x0b)
    2242                    
    2243                    $C$DW$119       .dwtag  DW_TAG_member
    2244                            .dwattr $C$DW$119, DW_AT_type(*$C$DW$T$44)
    2245                            .dwattr $C$DW$119, DW_AT_name("IFG")
    2246                            .dwattr $C$DW$119, DW_AT_TI_symbol_name("IFG")
    2247                            .dwattr $C$DW$119, DW_AT_data_member_location[DW_OP_plus_uconst 0x1c]
    2248                            .dwattr $C$DW$119, DW_AT_accessibility(DW_ACCESS_public)
    2249                            .dwattr $C$DW$119, DW_AT_decl_file("C:\ti\simplelink_msp432p4_sdk_3_30_00_13\source\ti\devices
    2250                            .dwattr $C$DW$119, DW_AT_decl_line(0x29e)
    2251                            .dwattr $C$DW$119, DW_AT_decl_column(0x10)
    2252                    
    2253                    $C$DW$120       .dwtag  DW_TAG_member
    2254                            .dwattr $C$DW$120, DW_AT_type(*$C$DW$T$27)
    2255                            .dwattr $C$DW$120, DW_AT_name("RESERVED11")
    2256                            .dwattr $C$DW$120, DW_AT_TI_symbol_name("RESERVED11")
    2257                            .dwattr $C$DW$120, DW_AT_data_member_location[DW_OP_plus_uconst 0x1d]
    2258                            .dwattr $C$DW$120, DW_AT_accessibility(DW_ACCESS_public)
    2259                            .dwattr $C$DW$120, DW_AT_decl_file("C:\ti\simplelink_msp432p4_sdk_3_30_00_13\source\ti\devices
    2260                            .dwattr $C$DW$120, DW_AT_decl_line(0x29f)
    2261                            .dwattr $C$DW$120, DW_AT_decl_column(0x0b)
    2262                    
    2263                            .dwattr $C$DW$T$47, DW_AT_decl_file("C:\ti\simplelink_msp432p4_sdk_3_30_00_13\source\ti\device
    2264                            .dwattr $C$DW$T$47, DW_AT_decl_line(0x287)
    2265                            .dwattr $C$DW$T$47, DW_AT_decl_column(0x10)
    2266                            .dwendtag $C$DW$T$47
    2267                    
    2268                    $C$DW$T$205     .dwtag  DW_TAG_typedef
    2269                            .dwattr $C$DW$T$205, DW_AT_name("DIO_PORT_Odd_Interruptable_Type")
    2270                            .dwattr $C$DW$T$205, DW_AT_type(*$C$DW$T$47)
    2271                            .dwattr $C$DW$T$205, DW_AT_language(DW_LANG_C)
    2272                            .dwattr $C$DW$T$205, DW_AT_decl_file("C:\ti\simplelink_msp432p4_sdk_3_30_00_13\source\ti\devic
    2273                            .dwattr $C$DW$T$205, DW_AT_decl_line(0x2a0)
    2274                            .dwattr $C$DW$T$205, DW_AT_decl_column(0x03)
    2275                    
    2276                    
    2277                    $C$DW$T$49      .dwtag  DW_TAG_structure_type
    2278                            .dwattr $C$DW$T$49, DW_AT_byte_size(0x20)
    2279                    $C$DW$121       .dwtag  DW_TAG_member
    2280                            .dwattr $C$DW$121, DW_AT_type(*$C$DW$T$27)
    2281                            .dwattr $C$DW$121, DW_AT_name("RESERVED0")
    2282                            .dwattr $C$DW$121, DW_AT_TI_symbol_name("RESERVED0")
    2283                            .dwattr $C$DW$121, DW_AT_data_member_location[DW_OP_plus_uconst 0x0]
    2284                            .dwattr $C$DW$121, DW_AT_accessibility(DW_ACCESS_public)
    2285                            .dwattr $C$DW$121, DW_AT_decl_file("C:\ti\simplelink_msp432p4_sdk_3_30_00_13\source\ti\devices
    2286                            .dwattr $C$DW$121, DW_AT_decl_line(0x2a3)
    2287                            .dwattr $C$DW$121, DW_AT_decl_column(0x0b)
    2288                    
TI ARM Assembler PC v18.12.2 Sat Dec 14 17:40:32 2019

Copyright (c) 1996-2018 Texas Instruments Incorporated
BL_Master.asm                                                        PAGE   43

    2289                    $C$DW$122       .dwtag  DW_TAG_member
    2290                            .dwattr $C$DW$122, DW_AT_type(*$C$DW$T$43)
    2291                            .dwattr $C$DW$122, DW_AT_name("IN")
    2292                            .dwattr $C$DW$122, DW_AT_TI_symbol_name("IN")
    2293                            .dwattr $C$DW$122, DW_AT_data_member_location[DW_OP_plus_uconst 0x1]
    2294                            .dwattr $C$DW$122, DW_AT_accessibility(DW_ACCESS_public)
    2295                            .dwattr $C$DW$122, DW_AT_decl_file("C:\ti\simplelink_msp432p4_sdk_3_30_00_13\source\ti\devices
    2296                            .dwattr $C$DW$122, DW_AT_decl_line(0x2a4)
    2297                            .dwattr $C$DW$122, DW_AT_decl_column(0x0f)
    2298                    
    2299                    $C$DW$123       .dwtag  DW_TAG_member
    2300                            .dwattr $C$DW$123, DW_AT_type(*$C$DW$T$27)
    2301                            .dwattr $C$DW$123, DW_AT_name("RESERVED1")
    2302                            .dwattr $C$DW$123, DW_AT_TI_symbol_name("RESERVED1")
    2303                            .dwattr $C$DW$123, DW_AT_data_member_location[DW_OP_plus_uconst 0x2]
    2304                            .dwattr $C$DW$123, DW_AT_accessibility(DW_ACCESS_public)
    2305                            .dwattr $C$DW$123, DW_AT_decl_file("C:\ti\simplelink_msp432p4_sdk_3_30_00_13\source\ti\devices
    2306                            .dwattr $C$DW$123, DW_AT_decl_line(0x2a5)
    2307                            .dwattr $C$DW$123, DW_AT_decl_column(0x0b)
    2308                    
    2309                    $C$DW$124       .dwtag  DW_TAG_member
    2310                            .dwattr $C$DW$124, DW_AT_type(*$C$DW$T$44)
    2311                            .dwattr $C$DW$124, DW_AT_name("OUT")
    2312                            .dwattr $C$DW$124, DW_AT_TI_symbol_name("OUT")
    2313                            .dwattr $C$DW$124, DW_AT_data_member_location[DW_OP_plus_uconst 0x3]
    2314                            .dwattr $C$DW$124, DW_AT_accessibility(DW_ACCESS_public)
    2315                            .dwattr $C$DW$124, DW_AT_decl_file("C:\ti\simplelink_msp432p4_sdk_3_30_00_13\source\ti\devices
    2316                            .dwattr $C$DW$124, DW_AT_decl_line(0x2a6)
    2317                            .dwattr $C$DW$124, DW_AT_decl_column(0x10)
    2318                    
    2319                    $C$DW$125       .dwtag  DW_TAG_member
    2320                            .dwattr $C$DW$125, DW_AT_type(*$C$DW$T$27)
    2321                            .dwattr $C$DW$125, DW_AT_name("RESERVED2")
    2322                            .dwattr $C$DW$125, DW_AT_TI_symbol_name("RESERVED2")
    2323                            .dwattr $C$DW$125, DW_AT_data_member_location[DW_OP_plus_uconst 0x4]
    2324                            .dwattr $C$DW$125, DW_AT_accessibility(DW_ACCESS_public)
    2325                            .dwattr $C$DW$125, DW_AT_decl_file("C:\ti\simplelink_msp432p4_sdk_3_30_00_13\source\ti\devices
    2326                            .dwattr $C$DW$125, DW_AT_decl_line(0x2a7)
    2327                            .dwattr $C$DW$125, DW_AT_decl_column(0x0b)
    2328                    
    2329                    $C$DW$126       .dwtag  DW_TAG_member
    2330                            .dwattr $C$DW$126, DW_AT_type(*$C$DW$T$44)
    2331                            .dwattr $C$DW$126, DW_AT_name("DIR")
    2332                            .dwattr $C$DW$126, DW_AT_TI_symbol_name("DIR")
    2333                            .dwattr $C$DW$126, DW_AT_data_member_location[DW_OP_plus_uconst 0x5]
    2334                            .dwattr $C$DW$126, DW_AT_accessibility(DW_ACCESS_public)
    2335                            .dwattr $C$DW$126, DW_AT_decl_file("C:\ti\simplelink_msp432p4_sdk_3_30_00_13\source\ti\devices
    2336                            .dwattr $C$DW$126, DW_AT_decl_line(0x2a8)
    2337                            .dwattr $C$DW$126, DW_AT_decl_column(0x10)
    2338                    
    2339                    $C$DW$127       .dwtag  DW_TAG_member
    2340                            .dwattr $C$DW$127, DW_AT_type(*$C$DW$T$27)
    2341                            .dwattr $C$DW$127, DW_AT_name("RESERVED3")
    2342                            .dwattr $C$DW$127, DW_AT_TI_symbol_name("RESERVED3")
    2343                            .dwattr $C$DW$127, DW_AT_data_member_location[DW_OP_plus_uconst 0x6]
TI ARM Assembler PC v18.12.2 Sat Dec 14 17:40:32 2019

Copyright (c) 1996-2018 Texas Instruments Incorporated
BL_Master.asm                                                        PAGE   44

    2344                            .dwattr $C$DW$127, DW_AT_accessibility(DW_ACCESS_public)
    2345                            .dwattr $C$DW$127, DW_AT_decl_file("C:\ti\simplelink_msp432p4_sdk_3_30_00_13\source\ti\devices
    2346                            .dwattr $C$DW$127, DW_AT_decl_line(0x2a9)
    2347                            .dwattr $C$DW$127, DW_AT_decl_column(0x0b)
    2348                    
    2349                    $C$DW$128       .dwtag  DW_TAG_member
    2350                            .dwattr $C$DW$128, DW_AT_type(*$C$DW$T$44)
    2351                            .dwattr $C$DW$128, DW_AT_name("REN")
    2352                            .dwattr $C$DW$128, DW_AT_TI_symbol_name("REN")
    2353                            .dwattr $C$DW$128, DW_AT_data_member_location[DW_OP_plus_uconst 0x7]
    2354                            .dwattr $C$DW$128, DW_AT_accessibility(DW_ACCESS_public)
    2355                            .dwattr $C$DW$128, DW_AT_decl_file("C:\ti\simplelink_msp432p4_sdk_3_30_00_13\source\ti\devices
    2356                            .dwattr $C$DW$128, DW_AT_decl_line(0x2aa)
    2357                            .dwattr $C$DW$128, DW_AT_decl_column(0x10)
    2358                    
    2359                    $C$DW$129       .dwtag  DW_TAG_member
    2360                            .dwattr $C$DW$129, DW_AT_type(*$C$DW$T$27)
    2361                            .dwattr $C$DW$129, DW_AT_name("RESERVED4")
    2362                            .dwattr $C$DW$129, DW_AT_TI_symbol_name("RESERVED4")
    2363                            .dwattr $C$DW$129, DW_AT_data_member_location[DW_OP_plus_uconst 0x8]
    2364                            .dwattr $C$DW$129, DW_AT_accessibility(DW_ACCESS_public)
    2365                            .dwattr $C$DW$129, DW_AT_decl_file("C:\ti\simplelink_msp432p4_sdk_3_30_00_13\source\ti\devices
    2366                            .dwattr $C$DW$129, DW_AT_decl_line(0x2ab)
    2367                            .dwattr $C$DW$129, DW_AT_decl_column(0x0b)
    2368                    
    2369                    $C$DW$130       .dwtag  DW_TAG_member
    2370                            .dwattr $C$DW$130, DW_AT_type(*$C$DW$T$44)
    2371                            .dwattr $C$DW$130, DW_AT_name("DS")
    2372                            .dwattr $C$DW$130, DW_AT_TI_symbol_name("DS")
    2373                            .dwattr $C$DW$130, DW_AT_data_member_location[DW_OP_plus_uconst 0x9]
    2374                            .dwattr $C$DW$130, DW_AT_accessibility(DW_ACCESS_public)
    2375                            .dwattr $C$DW$130, DW_AT_decl_file("C:\ti\simplelink_msp432p4_sdk_3_30_00_13\source\ti\devices
    2376                            .dwattr $C$DW$130, DW_AT_decl_line(0x2ac)
    2377                            .dwattr $C$DW$130, DW_AT_decl_column(0x10)
    2378                    
    2379                    $C$DW$131       .dwtag  DW_TAG_member
    2380                            .dwattr $C$DW$131, DW_AT_type(*$C$DW$T$27)
    2381                            .dwattr $C$DW$131, DW_AT_name("RESERVED5")
    2382                            .dwattr $C$DW$131, DW_AT_TI_symbol_name("RESERVED5")
    2383                            .dwattr $C$DW$131, DW_AT_data_member_location[DW_OP_plus_uconst 0xa]
    2384                            .dwattr $C$DW$131, DW_AT_accessibility(DW_ACCESS_public)
    2385                            .dwattr $C$DW$131, DW_AT_decl_file("C:\ti\simplelink_msp432p4_sdk_3_30_00_13\source\ti\devices
    2386                            .dwattr $C$DW$131, DW_AT_decl_line(0x2ad)
    2387                            .dwattr $C$DW$131, DW_AT_decl_column(0x0b)
    2388                    
    2389                    $C$DW$132       .dwtag  DW_TAG_member
    2390                            .dwattr $C$DW$132, DW_AT_type(*$C$DW$T$44)
    2391                            .dwattr $C$DW$132, DW_AT_name("SEL0")
    2392                            .dwattr $C$DW$132, DW_AT_TI_symbol_name("SEL0")
    2393                            .dwattr $C$DW$132, DW_AT_data_member_location[DW_OP_plus_uconst 0xb]
    2394                            .dwattr $C$DW$132, DW_AT_accessibility(DW_ACCESS_public)
    2395                            .dwattr $C$DW$132, DW_AT_decl_file("C:\ti\simplelink_msp432p4_sdk_3_30_00_13\source\ti\devices
    2396                            .dwattr $C$DW$132, DW_AT_decl_line(0x2ae)
    2397                            .dwattr $C$DW$132, DW_AT_decl_column(0x10)
    2398                    
TI ARM Assembler PC v18.12.2 Sat Dec 14 17:40:32 2019

Copyright (c) 1996-2018 Texas Instruments Incorporated
BL_Master.asm                                                        PAGE   45

    2399                    $C$DW$133       .dwtag  DW_TAG_member
    2400                            .dwattr $C$DW$133, DW_AT_type(*$C$DW$T$27)
    2401                            .dwattr $C$DW$133, DW_AT_name("RESERVED6")
    2402                            .dwattr $C$DW$133, DW_AT_TI_symbol_name("RESERVED6")
    2403                            .dwattr $C$DW$133, DW_AT_data_member_location[DW_OP_plus_uconst 0xc]
    2404                            .dwattr $C$DW$133, DW_AT_accessibility(DW_ACCESS_public)
    2405                            .dwattr $C$DW$133, DW_AT_decl_file("C:\ti\simplelink_msp432p4_sdk_3_30_00_13\source\ti\devices
    2406                            .dwattr $C$DW$133, DW_AT_decl_line(0x2af)
    2407                            .dwattr $C$DW$133, DW_AT_decl_column(0x0b)
    2408                    
    2409                    $C$DW$134       .dwtag  DW_TAG_member
    2410                            .dwattr $C$DW$134, DW_AT_type(*$C$DW$T$44)
    2411                            .dwattr $C$DW$134, DW_AT_name("SEL1")
    2412                            .dwattr $C$DW$134, DW_AT_TI_symbol_name("SEL1")
    2413                            .dwattr $C$DW$134, DW_AT_data_member_location[DW_OP_plus_uconst 0xd]
    2414                            .dwattr $C$DW$134, DW_AT_accessibility(DW_ACCESS_public)
    2415                            .dwattr $C$DW$134, DW_AT_decl_file("C:\ti\simplelink_msp432p4_sdk_3_30_00_13\source\ti\devices
    2416                            .dwattr $C$DW$134, DW_AT_decl_line(0x2b0)
    2417                            .dwattr $C$DW$134, DW_AT_decl_column(0x10)
    2418                    
    2419                    $C$DW$135       .dwtag  DW_TAG_member
    2420                            .dwattr $C$DW$135, DW_AT_type(*$C$DW$T$48)
    2421                            .dwattr $C$DW$135, DW_AT_name("RESERVED7")
    2422                            .dwattr $C$DW$135, DW_AT_TI_symbol_name("RESERVED7")
    2423                            .dwattr $C$DW$135, DW_AT_data_member_location[DW_OP_plus_uconst 0xe]
    2424                            .dwattr $C$DW$135, DW_AT_accessibility(DW_ACCESS_public)
    2425                            .dwattr $C$DW$135, DW_AT_decl_file("C:\ti\simplelink_msp432p4_sdk_3_30_00_13\source\ti\devices
    2426                            .dwattr $C$DW$135, DW_AT_decl_line(0x2b1)
    2427                            .dwattr $C$DW$135, DW_AT_decl_column(0x0b)
    2428                    
    2429                    $C$DW$136       .dwtag  DW_TAG_member
    2430                            .dwattr $C$DW$136, DW_AT_type(*$C$DW$T$44)
    2431                            .dwattr $C$DW$136, DW_AT_name("SELC")
    2432                            .dwattr $C$DW$136, DW_AT_TI_symbol_name("SELC")
    2433                            .dwattr $C$DW$136, DW_AT_data_member_location[DW_OP_plus_uconst 0x17]
    2434                            .dwattr $C$DW$136, DW_AT_accessibility(DW_ACCESS_public)
    2435                            .dwattr $C$DW$136, DW_AT_decl_file("C:\ti\simplelink_msp432p4_sdk_3_30_00_13\source\ti\devices
    2436                            .dwattr $C$DW$136, DW_AT_decl_line(0x2b2)
    2437                            .dwattr $C$DW$136, DW_AT_decl_column(0x10)
    2438                    
    2439                    $C$DW$137       .dwtag  DW_TAG_member
    2440                            .dwattr $C$DW$137, DW_AT_type(*$C$DW$T$27)
    2441                            .dwattr $C$DW$137, DW_AT_name("RESERVED8")
    2442                            .dwattr $C$DW$137, DW_AT_TI_symbol_name("RESERVED8")
    2443                            .dwattr $C$DW$137, DW_AT_data_member_location[DW_OP_plus_uconst 0x18]
    2444                            .dwattr $C$DW$137, DW_AT_accessibility(DW_ACCESS_public)
    2445                            .dwattr $C$DW$137, DW_AT_decl_file("C:\ti\simplelink_msp432p4_sdk_3_30_00_13\source\ti\devices
    2446                            .dwattr $C$DW$137, DW_AT_decl_line(0x2b3)
    2447                            .dwattr $C$DW$137, DW_AT_decl_column(0x0b)
    2448                    
    2449                    $C$DW$138       .dwtag  DW_TAG_member
    2450                            .dwattr $C$DW$138, DW_AT_type(*$C$DW$T$44)
    2451                            .dwattr $C$DW$138, DW_AT_name("IES")
    2452                            .dwattr $C$DW$138, DW_AT_TI_symbol_name("IES")
    2453                            .dwattr $C$DW$138, DW_AT_data_member_location[DW_OP_plus_uconst 0x19]
TI ARM Assembler PC v18.12.2 Sat Dec 14 17:40:32 2019

Copyright (c) 1996-2018 Texas Instruments Incorporated
BL_Master.asm                                                        PAGE   46

    2454                            .dwattr $C$DW$138, DW_AT_accessibility(DW_ACCESS_public)
    2455                            .dwattr $C$DW$138, DW_AT_decl_file("C:\ti\simplelink_msp432p4_sdk_3_30_00_13\source\ti\devices
    2456                            .dwattr $C$DW$138, DW_AT_decl_line(0x2b4)
    2457                            .dwattr $C$DW$138, DW_AT_decl_column(0x10)
    2458                    
    2459                    $C$DW$139       .dwtag  DW_TAG_member
    2460                            .dwattr $C$DW$139, DW_AT_type(*$C$DW$T$27)
    2461                            .dwattr $C$DW$139, DW_AT_name("RESERVED9")
    2462                            .dwattr $C$DW$139, DW_AT_TI_symbol_name("RESERVED9")
    2463                            .dwattr $C$DW$139, DW_AT_data_member_location[DW_OP_plus_uconst 0x1a]
    2464                            .dwattr $C$DW$139, DW_AT_accessibility(DW_ACCESS_public)
    2465                            .dwattr $C$DW$139, DW_AT_decl_file("C:\ti\simplelink_msp432p4_sdk_3_30_00_13\source\ti\devices
    2466                            .dwattr $C$DW$139, DW_AT_decl_line(0x2b5)
    2467                            .dwattr $C$DW$139, DW_AT_decl_column(0x0b)
    2468                    
    2469                    $C$DW$140       .dwtag  DW_TAG_member
    2470                            .dwattr $C$DW$140, DW_AT_type(*$C$DW$T$44)
    2471                            .dwattr $C$DW$140, DW_AT_name("IE")
    2472                            .dwattr $C$DW$140, DW_AT_TI_symbol_name("IE")
    2473                            .dwattr $C$DW$140, DW_AT_data_member_location[DW_OP_plus_uconst 0x1b]
    2474                            .dwattr $C$DW$140, DW_AT_accessibility(DW_ACCESS_public)
    2475                            .dwattr $C$DW$140, DW_AT_decl_file("C:\ti\simplelink_msp432p4_sdk_3_30_00_13\source\ti\devices
    2476                            .dwattr $C$DW$140, DW_AT_decl_line(0x2b6)
    2477                            .dwattr $C$DW$140, DW_AT_decl_column(0x10)
    2478                    
    2479                    $C$DW$141       .dwtag  DW_TAG_member
    2480                            .dwattr $C$DW$141, DW_AT_type(*$C$DW$T$27)
    2481                            .dwattr $C$DW$141, DW_AT_name("RESERVED10")
    2482                            .dwattr $C$DW$141, DW_AT_TI_symbol_name("RESERVED10")
    2483                            .dwattr $C$DW$141, DW_AT_data_member_location[DW_OP_plus_uconst 0x1c]
    2484                            .dwattr $C$DW$141, DW_AT_accessibility(DW_ACCESS_public)
    2485                            .dwattr $C$DW$141, DW_AT_decl_file("C:\ti\simplelink_msp432p4_sdk_3_30_00_13\source\ti\devices
    2486                            .dwattr $C$DW$141, DW_AT_decl_line(0x2b7)
    2487                            .dwattr $C$DW$141, DW_AT_decl_column(0x0b)
    2488                    
    2489                    $C$DW$142       .dwtag  DW_TAG_member
    2490                            .dwattr $C$DW$142, DW_AT_type(*$C$DW$T$44)
    2491                            .dwattr $C$DW$142, DW_AT_name("IFG")
    2492                            .dwattr $C$DW$142, DW_AT_TI_symbol_name("IFG")
    2493                            .dwattr $C$DW$142, DW_AT_data_member_location[DW_OP_plus_uconst 0x1d]
    2494                            .dwattr $C$DW$142, DW_AT_accessibility(DW_ACCESS_public)
    2495                            .dwattr $C$DW$142, DW_AT_decl_file("C:\ti\simplelink_msp432p4_sdk_3_30_00_13\source\ti\devices
    2496                            .dwattr $C$DW$142, DW_AT_decl_line(0x2b8)
    2497                            .dwattr $C$DW$142, DW_AT_decl_column(0x10)
    2498                    
    2499                    $C$DW$143       .dwtag  DW_TAG_member
    2500                            .dwattr $C$DW$143, DW_AT_type(*$C$DW$T$45)
    2501                            .dwattr $C$DW$143, DW_AT_name("IV")
    2502                            .dwattr $C$DW$143, DW_AT_TI_symbol_name("IV")
    2503                            .dwattr $C$DW$143, DW_AT_data_member_location[DW_OP_plus_uconst 0x1e]
    2504                            .dwattr $C$DW$143, DW_AT_accessibility(DW_ACCESS_public)
    2505                            .dwattr $C$DW$143, DW_AT_decl_file("C:\ti\simplelink_msp432p4_sdk_3_30_00_13\source\ti\devices
    2506                            .dwattr $C$DW$143, DW_AT_decl_line(0x2b9)
    2507                            .dwattr $C$DW$143, DW_AT_decl_column(0x10)
    2508                    
TI ARM Assembler PC v18.12.2 Sat Dec 14 17:40:32 2019

Copyright (c) 1996-2018 Texas Instruments Incorporated
BL_Master.asm                                                        PAGE   47

    2509                            .dwattr $C$DW$T$49, DW_AT_decl_file("C:\ti\simplelink_msp432p4_sdk_3_30_00_13\source\ti\device
    2510                            .dwattr $C$DW$T$49, DW_AT_decl_line(0x2a2)
    2511                            .dwattr $C$DW$T$49, DW_AT_decl_column(0x10)
    2512                            .dwendtag $C$DW$T$49
    2513                    
    2514                    $C$DW$T$207     .dwtag  DW_TAG_typedef
    2515                            .dwattr $C$DW$T$207, DW_AT_name("DIO_PORT_Even_Interruptable_Type")
    2516                            .dwattr $C$DW$T$207, DW_AT_type(*$C$DW$T$49)
    2517                            .dwattr $C$DW$T$207, DW_AT_language(DW_LANG_C)
    2518                            .dwattr $C$DW$T$207, DW_AT_decl_file("C:\ti\simplelink_msp432p4_sdk_3_30_00_13\source\ti\devic
    2519                            .dwattr $C$DW$T$207, DW_AT_decl_line(0x2ba)
    2520                            .dwattr $C$DW$T$207, DW_AT_decl_column(0x03)
    2521                    
    2522                    
    2523                    $C$DW$T$55      .dwtag  DW_TAG_structure_type
    2524                            .dwattr $C$DW$T$55, DW_AT_byte_size(0xe04)
    2525                    $C$DW$144       .dwtag  DW_TAG_member
    2526                            .dwattr $C$DW$144, DW_AT_type(*$C$DW$T$50)
    2527                            .dwattr $C$DW$144, DW_AT_name("ISER")
    2528                            .dwattr $C$DW$144, DW_AT_TI_symbol_name("ISER")
    2529                            .dwattr $C$DW$144, DW_AT_data_member_location[DW_OP_plus_uconst 0x0]
    2530                            .dwattr $C$DW$144, DW_AT_accessibility(DW_ACCESS_public)
    2531                            .dwattr $C$DW$144, DW_AT_decl_file("C:/ti/simplelink_msp432p4_sdk_3_30_00_13/source/third_part
    2532                            .dwattr $C$DW$144, DW_AT_decl_line(0x198)
    2533                            .dwattr $C$DW$144, DW_AT_decl_column(0x12)
    2534                    
    2535                    $C$DW$145       .dwtag  DW_TAG_member
    2536                            .dwattr $C$DW$145, DW_AT_type(*$C$DW$T$51)
    2537                            .dwattr $C$DW$145, DW_AT_name("RESERVED0")
    2538                            .dwattr $C$DW$145, DW_AT_TI_symbol_name("RESERVED0")
    2539                            .dwattr $C$DW$145, DW_AT_data_member_location[DW_OP_plus_uconst 0x20]
    2540                            .dwattr $C$DW$145, DW_AT_accessibility(DW_ACCESS_public)
    2541                            .dwattr $C$DW$145, DW_AT_decl_file("C:/ti/simplelink_msp432p4_sdk_3_30_00_13/source/third_part
    2542                            .dwattr $C$DW$145, DW_AT_decl_line(0x199)
    2543                            .dwattr $C$DW$145, DW_AT_decl_column(0x12)
    2544                    
    2545                    $C$DW$146       .dwtag  DW_TAG_member
    2546                            .dwattr $C$DW$146, DW_AT_type(*$C$DW$T$50)
    2547                            .dwattr $C$DW$146, DW_AT_name("ICER")
    2548                            .dwattr $C$DW$146, DW_AT_TI_symbol_name("ICER")
    2549                            .dwattr $C$DW$146, DW_AT_data_member_location[DW_OP_plus_uconst 0x80]
    2550                            .dwattr $C$DW$146, DW_AT_accessibility(DW_ACCESS_public)
    2551                            .dwattr $C$DW$146, DW_AT_decl_file("C:/ti/simplelink_msp432p4_sdk_3_30_00_13/source/third_part
    2552                            .dwattr $C$DW$146, DW_AT_decl_line(0x19a)
    2553                            .dwattr $C$DW$146, DW_AT_decl_column(0x12)
    2554                    
    2555                    $C$DW$147       .dwtag  DW_TAG_member
    2556                            .dwattr $C$DW$147, DW_AT_type(*$C$DW$T$51)
    2557                            .dwattr $C$DW$147, DW_AT_name("RESERVED1")
    2558                            .dwattr $C$DW$147, DW_AT_TI_symbol_name("RESERVED1")
    2559                            .dwattr $C$DW$147, DW_AT_data_member_location[DW_OP_plus_uconst 0xa0]
    2560                            .dwattr $C$DW$147, DW_AT_accessibility(DW_ACCESS_public)
    2561                            .dwattr $C$DW$147, DW_AT_decl_file("C:/ti/simplelink_msp432p4_sdk_3_30_00_13/source/third_part
    2562                            .dwattr $C$DW$147, DW_AT_decl_line(0x19b)
    2563                            .dwattr $C$DW$147, DW_AT_decl_column(0x12)
TI ARM Assembler PC v18.12.2 Sat Dec 14 17:40:32 2019

Copyright (c) 1996-2018 Texas Instruments Incorporated
BL_Master.asm                                                        PAGE   48

    2564                    
    2565                    $C$DW$148       .dwtag  DW_TAG_member
    2566                            .dwattr $C$DW$148, DW_AT_type(*$C$DW$T$50)
    2567                            .dwattr $C$DW$148, DW_AT_name("ISPR")
    2568                            .dwattr $C$DW$148, DW_AT_TI_symbol_name("ISPR")
    2569                            .dwattr $C$DW$148, DW_AT_data_member_location[DW_OP_plus_uconst 0x100]
    2570                            .dwattr $C$DW$148, DW_AT_accessibility(DW_ACCESS_public)
    2571                            .dwattr $C$DW$148, DW_AT_decl_file("C:/ti/simplelink_msp432p4_sdk_3_30_00_13/source/third_part
    2572                            .dwattr $C$DW$148, DW_AT_decl_line(0x19c)
    2573                            .dwattr $C$DW$148, DW_AT_decl_column(0x12)
    2574                    
    2575                    $C$DW$149       .dwtag  DW_TAG_member
    2576                            .dwattr $C$DW$149, DW_AT_type(*$C$DW$T$51)
    2577                            .dwattr $C$DW$149, DW_AT_name("RESERVED2")
    2578                            .dwattr $C$DW$149, DW_AT_TI_symbol_name("RESERVED2")
    2579                            .dwattr $C$DW$149, DW_AT_data_member_location[DW_OP_plus_uconst 0x120]
    2580                            .dwattr $C$DW$149, DW_AT_accessibility(DW_ACCESS_public)
    2581                            .dwattr $C$DW$149, DW_AT_decl_file("C:/ti/simplelink_msp432p4_sdk_3_30_00_13/source/third_part
    2582                            .dwattr $C$DW$149, DW_AT_decl_line(0x19d)
    2583                            .dwattr $C$DW$149, DW_AT_decl_column(0x12)
    2584                    
    2585                    $C$DW$150       .dwtag  DW_TAG_member
    2586                            .dwattr $C$DW$150, DW_AT_type(*$C$DW$T$50)
    2587                            .dwattr $C$DW$150, DW_AT_name("ICPR")
    2588                            .dwattr $C$DW$150, DW_AT_TI_symbol_name("ICPR")
    2589                            .dwattr $C$DW$150, DW_AT_data_member_location[DW_OP_plus_uconst 0x180]
    2590                            .dwattr $C$DW$150, DW_AT_accessibility(DW_ACCESS_public)
    2591                            .dwattr $C$DW$150, DW_AT_decl_file("C:/ti/simplelink_msp432p4_sdk_3_30_00_13/source/third_part
    2592                            .dwattr $C$DW$150, DW_AT_decl_line(0x19e)
    2593                            .dwattr $C$DW$150, DW_AT_decl_column(0x12)
    2594                    
    2595                    $C$DW$151       .dwtag  DW_TAG_member
    2596                            .dwattr $C$DW$151, DW_AT_type(*$C$DW$T$51)
    2597                            .dwattr $C$DW$151, DW_AT_name("RESERVED3")
    2598                            .dwattr $C$DW$151, DW_AT_TI_symbol_name("RESERVED3")
    2599                            .dwattr $C$DW$151, DW_AT_data_member_location[DW_OP_plus_uconst 0x1a0]
    2600                            .dwattr $C$DW$151, DW_AT_accessibility(DW_ACCESS_public)
    2601                            .dwattr $C$DW$151, DW_AT_decl_file("C:/ti/simplelink_msp432p4_sdk_3_30_00_13/source/third_part
    2602                            .dwattr $C$DW$151, DW_AT_decl_line(0x19f)
    2603                            .dwattr $C$DW$151, DW_AT_decl_column(0x12)
    2604                    
    2605                    $C$DW$152       .dwtag  DW_TAG_member
    2606                            .dwattr $C$DW$152, DW_AT_type(*$C$DW$T$50)
    2607                            .dwattr $C$DW$152, DW_AT_name("IABR")
    2608                            .dwattr $C$DW$152, DW_AT_TI_symbol_name("IABR")
    2609                            .dwattr $C$DW$152, DW_AT_data_member_location[DW_OP_plus_uconst 0x200]
    2610                            .dwattr $C$DW$152, DW_AT_accessibility(DW_ACCESS_public)
    2611                            .dwattr $C$DW$152, DW_AT_decl_file("C:/ti/simplelink_msp432p4_sdk_3_30_00_13/source/third_part
    2612                            .dwattr $C$DW$152, DW_AT_decl_line(0x1a0)
    2613                            .dwattr $C$DW$152, DW_AT_decl_column(0x12)
    2614                    
    2615                    $C$DW$153       .dwtag  DW_TAG_member
    2616                            .dwattr $C$DW$153, DW_AT_type(*$C$DW$T$52)
    2617                            .dwattr $C$DW$153, DW_AT_name("RESERVED4")
    2618                            .dwattr $C$DW$153, DW_AT_TI_symbol_name("RESERVED4")
TI ARM Assembler PC v18.12.2 Sat Dec 14 17:40:32 2019

Copyright (c) 1996-2018 Texas Instruments Incorporated
BL_Master.asm                                                        PAGE   49

    2619                            .dwattr $C$DW$153, DW_AT_data_member_location[DW_OP_plus_uconst 0x220]
    2620                            .dwattr $C$DW$153, DW_AT_accessibility(DW_ACCESS_public)
    2621                            .dwattr $C$DW$153, DW_AT_decl_file("C:/ti/simplelink_msp432p4_sdk_3_30_00_13/source/third_part
    2622                            .dwattr $C$DW$153, DW_AT_decl_line(0x1a1)
    2623                            .dwattr $C$DW$153, DW_AT_decl_column(0x12)
    2624                    
    2625                    $C$DW$154       .dwtag  DW_TAG_member
    2626                            .dwattr $C$DW$154, DW_AT_type(*$C$DW$T$53)
    2627                            .dwattr $C$DW$154, DW_AT_name("IP")
    2628                            .dwattr $C$DW$154, DW_AT_TI_symbol_name("IP")
    2629                            .dwattr $C$DW$154, DW_AT_data_member_location[DW_OP_plus_uconst 0x300]
    2630                            .dwattr $C$DW$154, DW_AT_accessibility(DW_ACCESS_public)
    2631                            .dwattr $C$DW$154, DW_AT_decl_file("C:/ti/simplelink_msp432p4_sdk_3_30_00_13/source/third_part
    2632                            .dwattr $C$DW$154, DW_AT_decl_line(0x1a2)
    2633                            .dwattr $C$DW$154, DW_AT_decl_column(0x12)
    2634                    
    2635                    $C$DW$155       .dwtag  DW_TAG_member
    2636                            .dwattr $C$DW$155, DW_AT_type(*$C$DW$T$54)
    2637                            .dwattr $C$DW$155, DW_AT_name("RESERVED5")
    2638                            .dwattr $C$DW$155, DW_AT_TI_symbol_name("RESERVED5")
    2639                            .dwattr $C$DW$155, DW_AT_data_member_location[DW_OP_plus_uconst 0x3f0]
    2640                            .dwattr $C$DW$155, DW_AT_accessibility(DW_ACCESS_public)
    2641                            .dwattr $C$DW$155, DW_AT_decl_file("C:/ti/simplelink_msp432p4_sdk_3_30_00_13/source/third_part
    2642                            .dwattr $C$DW$155, DW_AT_decl_line(0x1a3)
    2643                            .dwattr $C$DW$155, DW_AT_decl_column(0x12)
    2644                    
    2645                    $C$DW$156       .dwtag  DW_TAG_member
    2646                            .dwattr $C$DW$156, DW_AT_type(*$C$DW$T$38)
    2647                            .dwattr $C$DW$156, DW_AT_name("STIR")
    2648                            .dwattr $C$DW$156, DW_AT_TI_symbol_name("STIR")
    2649                            .dwattr $C$DW$156, DW_AT_data_member_location[DW_OP_plus_uconst 0xe00]
    2650                            .dwattr $C$DW$156, DW_AT_accessibility(DW_ACCESS_public)
    2651                            .dwattr $C$DW$156, DW_AT_decl_file("C:/ti/simplelink_msp432p4_sdk_3_30_00_13/source/third_part
    2652                            .dwattr $C$DW$156, DW_AT_decl_line(0x1a4)
    2653                            .dwattr $C$DW$156, DW_AT_decl_column(0x12)
    2654                    
    2655                            .dwattr $C$DW$T$55, DW_AT_decl_file("C:/ti/simplelink_msp432p4_sdk_3_30_00_13/source/third_par
    2656                            .dwattr $C$DW$T$55, DW_AT_decl_line(0x197)
    2657                            .dwattr $C$DW$T$55, DW_AT_decl_column(0x01)
    2658                            .dwendtag $C$DW$T$55
    2659                    
    2660                    $C$DW$T$209     .dwtag  DW_TAG_typedef
    2661                            .dwattr $C$DW$T$209, DW_AT_name("NVIC_Type")
    2662                            .dwattr $C$DW$T$209, DW_AT_type(*$C$DW$T$55)
    2663                            .dwattr $C$DW$T$209, DW_AT_language(DW_LANG_C)
    2664                            .dwattr $C$DW$T$209, DW_AT_decl_file("C:/ti/simplelink_msp432p4_sdk_3_30_00_13/source/third_pa
    2665                            .dwattr $C$DW$T$209, DW_AT_decl_line(0x1a5)
    2666                            .dwattr $C$DW$T$209, DW_AT_decl_column(0x04)
    2667                    
    2668                    
    2669                    $C$DW$T$57      .dwtag  DW_TAG_structure_type
    2670                            .dwattr $C$DW$T$57, DW_AT_byte_size(0x20)
    2671                    $C$DW$157       .dwtag  DW_TAG_member
    2672                            .dwattr $C$DW$157, DW_AT_type(*$C$DW$T$34)
    2673                            .dwattr $C$DW$157, DW_AT_name("CTLW0")
TI ARM Assembler PC v18.12.2 Sat Dec 14 17:40:32 2019

Copyright (c) 1996-2018 Texas Instruments Incorporated
BL_Master.asm                                                        PAGE   50

    2674                            .dwattr $C$DW$157, DW_AT_TI_symbol_name("CTLW0")
    2675                            .dwattr $C$DW$157, DW_AT_data_member_location[DW_OP_plus_uconst 0x0]
    2676                            .dwattr $C$DW$157, DW_AT_accessibility(DW_ACCESS_public)
    2677                            .dwattr $C$DW$157, DW_AT_decl_file("C:\ti\simplelink_msp432p4_sdk_3_30_00_13\source\ti\devices
    2678                            .dwattr $C$DW$157, DW_AT_decl_line(0x2f2)
    2679                            .dwattr $C$DW$157, DW_AT_decl_column(0x11)
    2680                    
    2681                    $C$DW$158       .dwtag  DW_TAG_member
    2682                            .dwattr $C$DW$158, DW_AT_type(*$C$DW$T$34)
    2683                            .dwattr $C$DW$158, DW_AT_name("CTLW1")
    2684                            .dwattr $C$DW$158, DW_AT_TI_symbol_name("CTLW1")
    2685                            .dwattr $C$DW$158, DW_AT_data_member_location[DW_OP_plus_uconst 0x2]
    2686                            .dwattr $C$DW$158, DW_AT_accessibility(DW_ACCESS_public)
    2687                            .dwattr $C$DW$158, DW_AT_decl_file("C:\ti\simplelink_msp432p4_sdk_3_30_00_13\source\ti\devices
    2688                            .dwattr $C$DW$158, DW_AT_decl_line(0x2f3)
    2689                            .dwattr $C$DW$158, DW_AT_decl_column(0x11)
    2690                    
    2691                    $C$DW$159       .dwtag  DW_TAG_member
    2692                            .dwattr $C$DW$159, DW_AT_type(*$C$DW$T$32)
    2693                            .dwattr $C$DW$159, DW_AT_name("RESERVED0")
    2694                            .dwattr $C$DW$159, DW_AT_TI_symbol_name("RESERVED0")
    2695                            .dwattr $C$DW$159, DW_AT_data_member_location[DW_OP_plus_uconst 0x4]
    2696                            .dwattr $C$DW$159, DW_AT_accessibility(DW_ACCESS_public)
    2697                            .dwattr $C$DW$159, DW_AT_decl_file("C:\ti\simplelink_msp432p4_sdk_3_30_00_13\source\ti\devices
    2698                            .dwattr $C$DW$159, DW_AT_decl_line(0x2f4)
    2699                            .dwattr $C$DW$159, DW_AT_decl_column(0x11)
    2700                    
    2701                    $C$DW$160       .dwtag  DW_TAG_member
    2702                            .dwattr $C$DW$160, DW_AT_type(*$C$DW$T$34)
    2703                            .dwattr $C$DW$160, DW_AT_name("BRW")
    2704                            .dwattr $C$DW$160, DW_AT_TI_symbol_name("BRW")
    2705                            .dwattr $C$DW$160, DW_AT_data_member_location[DW_OP_plus_uconst 0x6]
    2706                            .dwattr $C$DW$160, DW_AT_accessibility(DW_ACCESS_public)
    2707                            .dwattr $C$DW$160, DW_AT_decl_file("C:\ti\simplelink_msp432p4_sdk_3_30_00_13\source\ti\devices
    2708                            .dwattr $C$DW$160, DW_AT_decl_line(0x2f5)
    2709                            .dwattr $C$DW$160, DW_AT_decl_column(0x11)
    2710                    
    2711                    $C$DW$161       .dwtag  DW_TAG_member
    2712                            .dwattr $C$DW$161, DW_AT_type(*$C$DW$T$34)
    2713                            .dwattr $C$DW$161, DW_AT_name("MCTLW")
    2714                            .dwattr $C$DW$161, DW_AT_TI_symbol_name("MCTLW")
    2715                            .dwattr $C$DW$161, DW_AT_data_member_location[DW_OP_plus_uconst 0x8]
    2716                            .dwattr $C$DW$161, DW_AT_accessibility(DW_ACCESS_public)
    2717                            .dwattr $C$DW$161, DW_AT_decl_file("C:\ti\simplelink_msp432p4_sdk_3_30_00_13\source\ti\devices
    2718                            .dwattr $C$DW$161, DW_AT_decl_line(0x2f6)
    2719                            .dwattr $C$DW$161, DW_AT_decl_column(0x11)
    2720                    
    2721                    $C$DW$162       .dwtag  DW_TAG_member
    2722                            .dwattr $C$DW$162, DW_AT_type(*$C$DW$T$34)
    2723                            .dwattr $C$DW$162, DW_AT_name("STATW")
    2724                            .dwattr $C$DW$162, DW_AT_TI_symbol_name("STATW")
    2725                            .dwattr $C$DW$162, DW_AT_data_member_location[DW_OP_plus_uconst 0xa]
    2726                            .dwattr $C$DW$162, DW_AT_accessibility(DW_ACCESS_public)
    2727                            .dwattr $C$DW$162, DW_AT_decl_file("C:\ti\simplelink_msp432p4_sdk_3_30_00_13\source\ti\devices
    2728                            .dwattr $C$DW$162, DW_AT_decl_line(0x2f7)
TI ARM Assembler PC v18.12.2 Sat Dec 14 17:40:32 2019

Copyright (c) 1996-2018 Texas Instruments Incorporated
BL_Master.asm                                                        PAGE   51

    2729                            .dwattr $C$DW$162, DW_AT_decl_column(0x11)
    2730                    
    2731                    $C$DW$163       .dwtag  DW_TAG_member
    2732                            .dwattr $C$DW$163, DW_AT_type(*$C$DW$T$45)
    2733                            .dwattr $C$DW$163, DW_AT_name("RXBUF")
    2734                            .dwattr $C$DW$163, DW_AT_TI_symbol_name("RXBUF")
    2735                            .dwattr $C$DW$163, DW_AT_data_member_location[DW_OP_plus_uconst 0xc]
    2736                            .dwattr $C$DW$163, DW_AT_accessibility(DW_ACCESS_public)
    2737                            .dwattr $C$DW$163, DW_AT_decl_file("C:\ti\simplelink_msp432p4_sdk_3_30_00_13\source\ti\devices
    2738                            .dwattr $C$DW$163, DW_AT_decl_line(0x2f8)
    2739                            .dwattr $C$DW$163, DW_AT_decl_column(0x11)
    2740                    
    2741                    $C$DW$164       .dwtag  DW_TAG_member
    2742                            .dwattr $C$DW$164, DW_AT_type(*$C$DW$T$34)
    2743                            .dwattr $C$DW$164, DW_AT_name("TXBUF")
    2744                            .dwattr $C$DW$164, DW_AT_TI_symbol_name("TXBUF")
    2745                            .dwattr $C$DW$164, DW_AT_data_member_location[DW_OP_plus_uconst 0xe]
    2746                            .dwattr $C$DW$164, DW_AT_accessibility(DW_ACCESS_public)
    2747                            .dwattr $C$DW$164, DW_AT_decl_file("C:\ti\simplelink_msp432p4_sdk_3_30_00_13\source\ti\devices
    2748                            .dwattr $C$DW$164, DW_AT_decl_line(0x2f9)
    2749                            .dwattr $C$DW$164, DW_AT_decl_column(0x11)
    2750                    
    2751                    $C$DW$165       .dwtag  DW_TAG_member
    2752                            .dwattr $C$DW$165, DW_AT_type(*$C$DW$T$34)
    2753                            .dwattr $C$DW$165, DW_AT_name("ABCTL")
    2754                            .dwattr $C$DW$165, DW_AT_TI_symbol_name("ABCTL")
    2755                            .dwattr $C$DW$165, DW_AT_data_member_location[DW_OP_plus_uconst 0x10]
    2756                            .dwattr $C$DW$165, DW_AT_accessibility(DW_ACCESS_public)
    2757                            .dwattr $C$DW$165, DW_AT_decl_file("C:\ti\simplelink_msp432p4_sdk_3_30_00_13\source\ti\devices
    2758                            .dwattr $C$DW$165, DW_AT_decl_line(0x2fa)
    2759                            .dwattr $C$DW$165, DW_AT_decl_column(0x11)
    2760                    
    2761                    $C$DW$166       .dwtag  DW_TAG_member
    2762                            .dwattr $C$DW$166, DW_AT_type(*$C$DW$T$34)
    2763                            .dwattr $C$DW$166, DW_AT_name("IRCTL")
    2764                            .dwattr $C$DW$166, DW_AT_TI_symbol_name("IRCTL")
    2765                            .dwattr $C$DW$166, DW_AT_data_member_location[DW_OP_plus_uconst 0x12]
    2766                            .dwattr $C$DW$166, DW_AT_accessibility(DW_ACCESS_public)
    2767                            .dwattr $C$DW$166, DW_AT_decl_file("C:\ti\simplelink_msp432p4_sdk_3_30_00_13\source\ti\devices
    2768                            .dwattr $C$DW$166, DW_AT_decl_line(0x2fb)
    2769                            .dwattr $C$DW$166, DW_AT_decl_column(0x11)
    2770                    
    2771                    $C$DW$167       .dwtag  DW_TAG_member
    2772                            .dwattr $C$DW$167, DW_AT_type(*$C$DW$T$56)
    2773                            .dwattr $C$DW$167, DW_AT_name("RESERVED1")
    2774                            .dwattr $C$DW$167, DW_AT_TI_symbol_name("RESERVED1")
    2775                            .dwattr $C$DW$167, DW_AT_data_member_location[DW_OP_plus_uconst 0x14]
    2776                            .dwattr $C$DW$167, DW_AT_accessibility(DW_ACCESS_public)
    2777                            .dwattr $C$DW$167, DW_AT_decl_file("C:\ti\simplelink_msp432p4_sdk_3_30_00_13\source\ti\devices
    2778                            .dwattr $C$DW$167, DW_AT_decl_line(0x2fc)
    2779                            .dwattr $C$DW$167, DW_AT_decl_column(0x11)
    2780                    
    2781                    $C$DW$168       .dwtag  DW_TAG_member
    2782                            .dwattr $C$DW$168, DW_AT_type(*$C$DW$T$34)
    2783                            .dwattr $C$DW$168, DW_AT_name("IE")
TI ARM Assembler PC v18.12.2 Sat Dec 14 17:40:32 2019

Copyright (c) 1996-2018 Texas Instruments Incorporated
BL_Master.asm                                                        PAGE   52

    2784                            .dwattr $C$DW$168, DW_AT_TI_symbol_name("IE")
    2785                            .dwattr $C$DW$168, DW_AT_data_member_location[DW_OP_plus_uconst 0x1a]
    2786                            .dwattr $C$DW$168, DW_AT_accessibility(DW_ACCESS_public)
    2787                            .dwattr $C$DW$168, DW_AT_decl_file("C:\ti\simplelink_msp432p4_sdk_3_30_00_13\source\ti\devices
    2788                            .dwattr $C$DW$168, DW_AT_decl_line(0x2fd)
    2789                            .dwattr $C$DW$168, DW_AT_decl_column(0x11)
    2790                    
    2791                    $C$DW$169       .dwtag  DW_TAG_member
    2792                            .dwattr $C$DW$169, DW_AT_type(*$C$DW$T$34)
    2793                            .dwattr $C$DW$169, DW_AT_name("IFG")
    2794                            .dwattr $C$DW$169, DW_AT_TI_symbol_name("IFG")
    2795                            .dwattr $C$DW$169, DW_AT_data_member_location[DW_OP_plus_uconst 0x1c]
    2796                            .dwattr $C$DW$169, DW_AT_accessibility(DW_ACCESS_public)
    2797                            .dwattr $C$DW$169, DW_AT_decl_file("C:\ti\simplelink_msp432p4_sdk_3_30_00_13\source\ti\devices
    2798                            .dwattr $C$DW$169, DW_AT_decl_line(0x2fe)
    2799                            .dwattr $C$DW$169, DW_AT_decl_column(0x11)
    2800                    
    2801                    $C$DW$170       .dwtag  DW_TAG_member
    2802                            .dwattr $C$DW$170, DW_AT_type(*$C$DW$T$45)
    2803                            .dwattr $C$DW$170, DW_AT_name("IV")
    2804                            .dwattr $C$DW$170, DW_AT_TI_symbol_name("IV")
    2805                            .dwattr $C$DW$170, DW_AT_data_member_location[DW_OP_plus_uconst 0x1e]
    2806                            .dwattr $C$DW$170, DW_AT_accessibility(DW_ACCESS_public)
    2807                            .dwattr $C$DW$170, DW_AT_decl_file("C:\ti\simplelink_msp432p4_sdk_3_30_00_13\source\ti\devices
    2808                            .dwattr $C$DW$170, DW_AT_decl_line(0x2ff)
    2809                            .dwattr $C$DW$170, DW_AT_decl_column(0x11)
    2810                    
    2811                            .dwattr $C$DW$T$57, DW_AT_decl_file("C:\ti\simplelink_msp432p4_sdk_3_30_00_13\source\ti\device
    2812                            .dwattr $C$DW$T$57, DW_AT_decl_line(0x2f1)
    2813                            .dwattr $C$DW$T$57, DW_AT_decl_column(0x10)
    2814                            .dwendtag $C$DW$T$57
    2815                    
    2816                    $C$DW$T$211     .dwtag  DW_TAG_typedef
    2817                            .dwattr $C$DW$T$211, DW_AT_name("EUSCI_A_Type")
    2818                            .dwattr $C$DW$T$211, DW_AT_type(*$C$DW$T$57)
    2819                            .dwattr $C$DW$T$211, DW_AT_language(DW_LANG_C)
    2820                            .dwattr $C$DW$T$211, DW_AT_decl_file("C:\ti\simplelink_msp432p4_sdk_3_30_00_13\source\ti\devic
    2821                            .dwattr $C$DW$T$211, DW_AT_decl_line(0x300)
    2822                            .dwattr $C$DW$T$211, DW_AT_decl_column(0x03)
    2823                    
    2824                    
    2825                    $C$DW$T$58      .dwtag  DW_TAG_structure_type
    2826                            .dwattr $C$DW$T$58, DW_AT_byte_size(0x10)
    2827                    $C$DW$171       .dwtag  DW_TAG_member
    2828                            .dwattr $C$DW$171, DW_AT_type(*$C$DW$T$14)
    2829                            .dwattr $C$DW$171, DW_AT_name("__max_align1")
    2830                            .dwattr $C$DW$171, DW_AT_TI_symbol_name("__max_align1")
    2831                            .dwattr $C$DW$171, DW_AT_data_member_location[DW_OP_plus_uconst 0x0]
    2832                            .dwattr $C$DW$171, DW_AT_accessibility(DW_ACCESS_public)
    2833                            .dwattr $C$DW$171, DW_AT_decl_file("C:/ti/ccs910/ccs/tools/compiler/ti-cgt-arm_18.12.2.LTS/inc
    2834                            .dwattr $C$DW$171, DW_AT_decl_line(0x7a)
    2835                            .dwattr $C$DW$171, DW_AT_decl_column(0x0c)
    2836                    
    2837                    $C$DW$172       .dwtag  DW_TAG_member
    2838                            .dwattr $C$DW$172, DW_AT_type(*$C$DW$T$18)
TI ARM Assembler PC v18.12.2 Sat Dec 14 17:40:32 2019

Copyright (c) 1996-2018 Texas Instruments Incorporated
BL_Master.asm                                                        PAGE   53

    2839                            .dwattr $C$DW$172, DW_AT_name("__max_align2")
    2840                            .dwattr $C$DW$172, DW_AT_TI_symbol_name("__max_align2")
    2841                            .dwattr $C$DW$172, DW_AT_data_member_location[DW_OP_plus_uconst 0x8]
    2842                            .dwattr $C$DW$172, DW_AT_accessibility(DW_ACCESS_public)
    2843                            .dwattr $C$DW$172, DW_AT_decl_file("C:/ti/ccs910/ccs/tools/compiler/ti-cgt-arm_18.12.2.LTS/inc
    2844                            .dwattr $C$DW$172, DW_AT_decl_line(0x7b)
    2845                            .dwattr $C$DW$172, DW_AT_decl_column(0x0e)
    2846                    
    2847                            .dwattr $C$DW$T$58, DW_AT_decl_file("C:/ti/ccs910/ccs/tools/compiler/ti-cgt-arm_18.12.2.LTS/in
    2848                            .dwattr $C$DW$T$58, DW_AT_decl_line(0x79)
    2849                            .dwattr $C$DW$T$58, DW_AT_decl_column(0x10)
    2850                            .dwendtag $C$DW$T$58
    2851                    
    2852                    $C$DW$T$213     .dwtag  DW_TAG_typedef
    2853                            .dwattr $C$DW$T$213, DW_AT_name("__max_align_t")
    2854                            .dwattr $C$DW$T$213, DW_AT_type(*$C$DW$T$58)
    2855                            .dwattr $C$DW$T$213, DW_AT_language(DW_LANG_C)
    2856                            .dwattr $C$DW$T$213, DW_AT_decl_file("C:/ti/ccs910/ccs/tools/compiler/ti-cgt-arm_18.12.2.LTS/i
    2857                            .dwattr $C$DW$T$213, DW_AT_decl_line(0x7c)
    2858                            .dwattr $C$DW$T$213, DW_AT_decl_column(0x03)
    2859                    
    2860                    
    2861                    $C$DW$T$59      .dwtag  DW_TAG_structure_type
    2862                            .dwattr $C$DW$T$59, DW_AT_byte_size(0x04)
    2863                    $C$DW$173       .dwtag  DW_TAG_member
    2864                            .dwattr $C$DW$173, DW_AT_type(*$C$DW$T$37)
    2865                            .dwattr $C$DW$173, DW_AT_name("_reserved0")
    2866                            .dwattr $C$DW$173, DW_AT_TI_symbol_name("_reserved0")
    2867                            .dwattr $C$DW$173, DW_AT_bit_offset(0x10)
    2868                            .dwattr $C$DW$173, DW_AT_bit_size(0x10)
    2869                            .dwattr $C$DW$173, DW_AT_data_member_location[DW_OP_plus_uconst 0x0]
    2870                            .dwattr $C$DW$173, DW_AT_accessibility(DW_ACCESS_public)
    2871                            .dwattr $C$DW$173, DW_AT_decl_file("C:/ti/simplelink_msp432p4_sdk_3_30_00_13/source/third_part
    2872                            .dwattr $C$DW$173, DW_AT_decl_line(0x107)
    2873                            .dwattr $C$DW$173, DW_AT_decl_column(0x0e)
    2874                    
    2875                    $C$DW$174       .dwtag  DW_TAG_member
    2876                            .dwattr $C$DW$174, DW_AT_type(*$C$DW$T$37)
    2877                            .dwattr $C$DW$174, DW_AT_name("GE")
    2878                            .dwattr $C$DW$174, DW_AT_TI_symbol_name("GE")
    2879                            .dwattr $C$DW$174, DW_AT_bit_offset(0x0c)
    2880                            .dwattr $C$DW$174, DW_AT_bit_size(0x04)
    2881                            .dwattr $C$DW$174, DW_AT_data_member_location[DW_OP_plus_uconst 0x0]
    2882                            .dwattr $C$DW$174, DW_AT_accessibility(DW_ACCESS_public)
    2883                            .dwattr $C$DW$174, DW_AT_decl_file("C:/ti/simplelink_msp432p4_sdk_3_30_00_13/source/third_part
    2884                            .dwattr $C$DW$174, DW_AT_decl_line(0x108)
    2885                            .dwattr $C$DW$174, DW_AT_decl_column(0x0e)
    2886                    
    2887                    $C$DW$175       .dwtag  DW_TAG_member
    2888                            .dwattr $C$DW$175, DW_AT_type(*$C$DW$T$37)
    2889                            .dwattr $C$DW$175, DW_AT_name("_reserved1")
    2890                            .dwattr $C$DW$175, DW_AT_TI_symbol_name("_reserved1")
    2891                            .dwattr $C$DW$175, DW_AT_bit_offset(0x05)
    2892                            .dwattr $C$DW$175, DW_AT_bit_size(0x07)
    2893                            .dwattr $C$DW$175, DW_AT_data_member_location[DW_OP_plus_uconst 0x0]
TI ARM Assembler PC v18.12.2 Sat Dec 14 17:40:32 2019

Copyright (c) 1996-2018 Texas Instruments Incorporated
BL_Master.asm                                                        PAGE   54

    2894                            .dwattr $C$DW$175, DW_AT_accessibility(DW_ACCESS_public)
    2895                            .dwattr $C$DW$175, DW_AT_decl_file("C:/ti/simplelink_msp432p4_sdk_3_30_00_13/source/third_part
    2896                            .dwattr $C$DW$175, DW_AT_decl_line(0x109)
    2897                            .dwattr $C$DW$175, DW_AT_decl_column(0x0e)
    2898                    
    2899                    $C$DW$176       .dwtag  DW_TAG_member
    2900                            .dwattr $C$DW$176, DW_AT_type(*$C$DW$T$37)
    2901                            .dwattr $C$DW$176, DW_AT_name("Q")
    2902                            .dwattr $C$DW$176, DW_AT_TI_symbol_name("Q")
    2903                            .dwattr $C$DW$176, DW_AT_bit_offset(0x04)
    2904                            .dwattr $C$DW$176, DW_AT_bit_size(0x01)
    2905                            .dwattr $C$DW$176, DW_AT_data_member_location[DW_OP_plus_uconst 0x0]
    2906                            .dwattr $C$DW$176, DW_AT_accessibility(DW_ACCESS_public)
    2907                            .dwattr $C$DW$176, DW_AT_decl_file("C:/ti/simplelink_msp432p4_sdk_3_30_00_13/source/third_part
    2908                            .dwattr $C$DW$176, DW_AT_decl_line(0x10a)
    2909                            .dwattr $C$DW$176, DW_AT_decl_column(0x0e)
    2910                    
    2911                    $C$DW$177       .dwtag  DW_TAG_member
    2912                            .dwattr $C$DW$177, DW_AT_type(*$C$DW$T$37)
    2913                            .dwattr $C$DW$177, DW_AT_name("V")
    2914                            .dwattr $C$DW$177, DW_AT_TI_symbol_name("V")
    2915                            .dwattr $C$DW$177, DW_AT_bit_offset(0x03)
    2916                            .dwattr $C$DW$177, DW_AT_bit_size(0x01)
    2917                            .dwattr $C$DW$177, DW_AT_data_member_location[DW_OP_plus_uconst 0x0]
    2918                            .dwattr $C$DW$177, DW_AT_accessibility(DW_ACCESS_public)
    2919                            .dwattr $C$DW$177, DW_AT_decl_file("C:/ti/simplelink_msp432p4_sdk_3_30_00_13/source/third_part
    2920                            .dwattr $C$DW$177, DW_AT_decl_line(0x10b)
    2921                            .dwattr $C$DW$177, DW_AT_decl_column(0x0e)
    2922                    
    2923                    $C$DW$178       .dwtag  DW_TAG_member
    2924                            .dwattr $C$DW$178, DW_AT_type(*$C$DW$T$37)
    2925                            .dwattr $C$DW$178, DW_AT_name("C")
    2926                            .dwattr $C$DW$178, DW_AT_TI_symbol_name("C")
    2927                            .dwattr $C$DW$178, DW_AT_bit_offset(0x02)
    2928                            .dwattr $C$DW$178, DW_AT_bit_size(0x01)
    2929                            .dwattr $C$DW$178, DW_AT_data_member_location[DW_OP_plus_uconst 0x0]
    2930                            .dwattr $C$DW$178, DW_AT_accessibility(DW_ACCESS_public)
    2931                            .dwattr $C$DW$178, DW_AT_decl_file("C:/ti/simplelink_msp432p4_sdk_3_30_00_13/source/third_part
    2932                            .dwattr $C$DW$178, DW_AT_decl_line(0x10c)
    2933                            .dwattr $C$DW$178, DW_AT_decl_column(0x0e)
    2934                    
    2935                    $C$DW$179       .dwtag  DW_TAG_member
    2936                            .dwattr $C$DW$179, DW_AT_type(*$C$DW$T$37)
    2937                            .dwattr $C$DW$179, DW_AT_name("Z")
    2938                            .dwattr $C$DW$179, DW_AT_TI_symbol_name("Z")
    2939                            .dwattr $C$DW$179, DW_AT_bit_offset(0x01)
    2940                            .dwattr $C$DW$179, DW_AT_bit_size(0x01)
    2941                            .dwattr $C$DW$179, DW_AT_data_member_location[DW_OP_plus_uconst 0x0]
    2942                            .dwattr $C$DW$179, DW_AT_accessibility(DW_ACCESS_public)
    2943                            .dwattr $C$DW$179, DW_AT_decl_file("C:/ti/simplelink_msp432p4_sdk_3_30_00_13/source/third_part
    2944                            .dwattr $C$DW$179, DW_AT_decl_line(0x10d)
    2945                            .dwattr $C$DW$179, DW_AT_decl_column(0x0e)
    2946                    
    2947                    $C$DW$180       .dwtag  DW_TAG_member
    2948                            .dwattr $C$DW$180, DW_AT_type(*$C$DW$T$37)
TI ARM Assembler PC v18.12.2 Sat Dec 14 17:40:32 2019

Copyright (c) 1996-2018 Texas Instruments Incorporated
BL_Master.asm                                                        PAGE   55

    2949                            .dwattr $C$DW$180, DW_AT_name("N")
    2950                            .dwattr $C$DW$180, DW_AT_TI_symbol_name("N")
    2951                            .dwattr $C$DW$180, DW_AT_bit_offset(0x00)
    2952                            .dwattr $C$DW$180, DW_AT_bit_size(0x01)
    2953                            .dwattr $C$DW$180, DW_AT_data_member_location[DW_OP_plus_uconst 0x0]
    2954                            .dwattr $C$DW$180, DW_AT_accessibility(DW_ACCESS_public)
    2955                            .dwattr $C$DW$180, DW_AT_decl_file("C:/ti/simplelink_msp432p4_sdk_3_30_00_13/source/third_part
    2956                            .dwattr $C$DW$180, DW_AT_decl_line(0x10e)
    2957                            .dwattr $C$DW$180, DW_AT_decl_column(0x0e)
    2958                    
    2959                            .dwattr $C$DW$T$59, DW_AT_decl_file("C:/ti/simplelink_msp432p4_sdk_3_30_00_13/source/third_par
    2960                            .dwattr $C$DW$T$59, DW_AT_decl_line(0x106)
    2961                            .dwattr $C$DW$T$59, DW_AT_decl_column(0x03)
    2962                            .dwendtag $C$DW$T$59
    2963                    
    2964                    
    2965                    $C$DW$T$60      .dwtag  DW_TAG_structure_type
    2966                            .dwattr $C$DW$T$60, DW_AT_byte_size(0x04)
    2967                    $C$DW$181       .dwtag  DW_TAG_member
    2968                            .dwattr $C$DW$181, DW_AT_type(*$C$DW$T$37)
    2969                            .dwattr $C$DW$181, DW_AT_name("ISR")
    2970                            .dwattr $C$DW$181, DW_AT_TI_symbol_name("ISR")
    2971                            .dwattr $C$DW$181, DW_AT_bit_offset(0x17)
    2972                            .dwattr $C$DW$181, DW_AT_bit_size(0x09)
    2973                            .dwattr $C$DW$181, DW_AT_data_member_location[DW_OP_plus_uconst 0x0]
    2974                            .dwattr $C$DW$181, DW_AT_accessibility(DW_ACCESS_public)
    2975                            .dwattr $C$DW$181, DW_AT_decl_file("C:/ti/simplelink_msp432p4_sdk_3_30_00_13/source/third_part
    2976                            .dwattr $C$DW$181, DW_AT_decl_line(0x12e)
    2977                            .dwattr $C$DW$181, DW_AT_decl_column(0x0e)
    2978                    
    2979                    $C$DW$182       .dwtag  DW_TAG_member
    2980                            .dwattr $C$DW$182, DW_AT_type(*$C$DW$T$37)
    2981                            .dwattr $C$DW$182, DW_AT_name("_reserved0")
    2982                            .dwattr $C$DW$182, DW_AT_TI_symbol_name("_reserved0")
    2983                            .dwattr $C$DW$182, DW_AT_bit_offset(0x00)
    2984                            .dwattr $C$DW$182, DW_AT_bit_size(0x17)
    2985                            .dwattr $C$DW$182, DW_AT_data_member_location[DW_OP_plus_uconst 0x0]
    2986                            .dwattr $C$DW$182, DW_AT_accessibility(DW_ACCESS_public)
    2987                            .dwattr $C$DW$182, DW_AT_decl_file("C:/ti/simplelink_msp432p4_sdk_3_30_00_13/source/third_part
    2988                            .dwattr $C$DW$182, DW_AT_decl_line(0x12f)
    2989                            .dwattr $C$DW$182, DW_AT_decl_column(0x0e)
    2990                    
    2991                            .dwattr $C$DW$T$60, DW_AT_decl_file("C:/ti/simplelink_msp432p4_sdk_3_30_00_13/source/third_par
    2992                            .dwattr $C$DW$T$60, DW_AT_decl_line(0x12d)
    2993                            .dwattr $C$DW$T$60, DW_AT_decl_column(0x03)
    2994                            .dwendtag $C$DW$T$60
    2995                    
    2996                    
    2997                    $C$DW$T$61      .dwtag  DW_TAG_structure_type
    2998                            .dwattr $C$DW$T$61, DW_AT_byte_size(0x04)
    2999                    $C$DW$183       .dwtag  DW_TAG_member
    3000                            .dwattr $C$DW$183, DW_AT_type(*$C$DW$T$37)
    3001                            .dwattr $C$DW$183, DW_AT_name("ISR")
    3002                            .dwattr $C$DW$183, DW_AT_TI_symbol_name("ISR")
    3003                            .dwattr $C$DW$183, DW_AT_bit_offset(0x17)
TI ARM Assembler PC v18.12.2 Sat Dec 14 17:40:32 2019

Copyright (c) 1996-2018 Texas Instruments Incorporated
BL_Master.asm                                                        PAGE   56

    3004                            .dwattr $C$DW$183, DW_AT_bit_size(0x09)
    3005                            .dwattr $C$DW$183, DW_AT_data_member_location[DW_OP_plus_uconst 0x0]
    3006                            .dwattr $C$DW$183, DW_AT_accessibility(DW_ACCESS_public)
    3007                            .dwattr $C$DW$183, DW_AT_decl_file("C:/ti/simplelink_msp432p4_sdk_3_30_00_13/source/third_part
    3008                            .dwattr $C$DW$183, DW_AT_decl_line(0x140)
    3009                            .dwattr $C$DW$183, DW_AT_decl_column(0x0e)
    3010                    
    3011                    $C$DW$184       .dwtag  DW_TAG_member
    3012                            .dwattr $C$DW$184, DW_AT_type(*$C$DW$T$37)
    3013                            .dwattr $C$DW$184, DW_AT_name("_reserved0")
    3014                            .dwattr $C$DW$184, DW_AT_TI_symbol_name("_reserved0")
    3015                            .dwattr $C$DW$184, DW_AT_bit_offset(0x16)
    3016                            .dwattr $C$DW$184, DW_AT_bit_size(0x01)
    3017                            .dwattr $C$DW$184, DW_AT_data_member_location[DW_OP_plus_uconst 0x0]
    3018                            .dwattr $C$DW$184, DW_AT_accessibility(DW_ACCESS_public)
    3019                            .dwattr $C$DW$184, DW_AT_decl_file("C:/ti/simplelink_msp432p4_sdk_3_30_00_13/source/third_part
    3020                            .dwattr $C$DW$184, DW_AT_decl_line(0x141)
    3021                            .dwattr $C$DW$184, DW_AT_decl_column(0x0e)
    3022                    
    3023                    $C$DW$185       .dwtag  DW_TAG_member
    3024                            .dwattr $C$DW$185, DW_AT_type(*$C$DW$T$37)
    3025                            .dwattr $C$DW$185, DW_AT_name("ICI_IT_1")
    3026                            .dwattr $C$DW$185, DW_AT_TI_symbol_name("ICI_IT_1")
    3027                            .dwattr $C$DW$185, DW_AT_bit_offset(0x10)
    3028                            .dwattr $C$DW$185, DW_AT_bit_size(0x06)
    3029                            .dwattr $C$DW$185, DW_AT_data_member_location[DW_OP_plus_uconst 0x0]
    3030                            .dwattr $C$DW$185, DW_AT_accessibility(DW_ACCESS_public)
    3031                            .dwattr $C$DW$185, DW_AT_decl_file("C:/ti/simplelink_msp432p4_sdk_3_30_00_13/source/third_part
    3032                            .dwattr $C$DW$185, DW_AT_decl_line(0x142)
    3033                            .dwattr $C$DW$185, DW_AT_decl_column(0x0e)
    3034                    
    3035                    $C$DW$186       .dwtag  DW_TAG_member
    3036                            .dwattr $C$DW$186, DW_AT_type(*$C$DW$T$37)
    3037                            .dwattr $C$DW$186, DW_AT_name("GE")
    3038                            .dwattr $C$DW$186, DW_AT_TI_symbol_name("GE")
    3039                            .dwattr $C$DW$186, DW_AT_bit_offset(0x0c)
    3040                            .dwattr $C$DW$186, DW_AT_bit_size(0x04)
    3041                            .dwattr $C$DW$186, DW_AT_data_member_location[DW_OP_plus_uconst 0x0]
    3042                            .dwattr $C$DW$186, DW_AT_accessibility(DW_ACCESS_public)
    3043                            .dwattr $C$DW$186, DW_AT_decl_file("C:/ti/simplelink_msp432p4_sdk_3_30_00_13/source/third_part
    3044                            .dwattr $C$DW$186, DW_AT_decl_line(0x143)
    3045                            .dwattr $C$DW$186, DW_AT_decl_column(0x0e)
    3046                    
    3047                    $C$DW$187       .dwtag  DW_TAG_member
    3048                            .dwattr $C$DW$187, DW_AT_type(*$C$DW$T$37)
    3049                            .dwattr $C$DW$187, DW_AT_name("_reserved1")
    3050                            .dwattr $C$DW$187, DW_AT_TI_symbol_name("_reserved1")
    3051                            .dwattr $C$DW$187, DW_AT_bit_offset(0x08)
    3052                            .dwattr $C$DW$187, DW_AT_bit_size(0x04)
    3053                            .dwattr $C$DW$187, DW_AT_data_member_location[DW_OP_plus_uconst 0x0]
    3054                            .dwattr $C$DW$187, DW_AT_accessibility(DW_ACCESS_public)
    3055                            .dwattr $C$DW$187, DW_AT_decl_file("C:/ti/simplelink_msp432p4_sdk_3_30_00_13/source/third_part
    3056                            .dwattr $C$DW$187, DW_AT_decl_line(0x144)
    3057                            .dwattr $C$DW$187, DW_AT_decl_column(0x0e)
    3058                    
TI ARM Assembler PC v18.12.2 Sat Dec 14 17:40:32 2019

Copyright (c) 1996-2018 Texas Instruments Incorporated
BL_Master.asm                                                        PAGE   57

    3059                    $C$DW$188       .dwtag  DW_TAG_member
    3060                            .dwattr $C$DW$188, DW_AT_type(*$C$DW$T$37)
    3061                            .dwattr $C$DW$188, DW_AT_name("T")
    3062                            .dwattr $C$DW$188, DW_AT_TI_symbol_name("T")
    3063                            .dwattr $C$DW$188, DW_AT_bit_offset(0x07)
    3064                            .dwattr $C$DW$188, DW_AT_bit_size(0x01)
    3065                            .dwattr $C$DW$188, DW_AT_data_member_location[DW_OP_plus_uconst 0x0]
    3066                            .dwattr $C$DW$188, DW_AT_accessibility(DW_ACCESS_public)
    3067                            .dwattr $C$DW$188, DW_AT_decl_file("C:/ti/simplelink_msp432p4_sdk_3_30_00_13/source/third_part
    3068                            .dwattr $C$DW$188, DW_AT_decl_line(0x145)
    3069                            .dwattr $C$DW$188, DW_AT_decl_column(0x0e)
    3070                    
    3071                    $C$DW$189       .dwtag  DW_TAG_member
    3072                            .dwattr $C$DW$189, DW_AT_type(*$C$DW$T$37)
    3073                            .dwattr $C$DW$189, DW_AT_name("ICI_IT_2")
    3074                            .dwattr $C$DW$189, DW_AT_TI_symbol_name("ICI_IT_2")
    3075                            .dwattr $C$DW$189, DW_AT_bit_offset(0x05)
    3076                            .dwattr $C$DW$189, DW_AT_bit_size(0x02)
    3077                            .dwattr $C$DW$189, DW_AT_data_member_location[DW_OP_plus_uconst 0x0]
    3078                            .dwattr $C$DW$189, DW_AT_accessibility(DW_ACCESS_public)
    3079                            .dwattr $C$DW$189, DW_AT_decl_file("C:/ti/simplelink_msp432p4_sdk_3_30_00_13/source/third_part
    3080                            .dwattr $C$DW$189, DW_AT_decl_line(0x146)
    3081                            .dwattr $C$DW$189, DW_AT_decl_column(0x0e)
    3082                    
    3083                    $C$DW$190       .dwtag  DW_TAG_member
    3084                            .dwattr $C$DW$190, DW_AT_type(*$C$DW$T$37)
    3085                            .dwattr $C$DW$190, DW_AT_name("Q")
    3086                            .dwattr $C$DW$190, DW_AT_TI_symbol_name("Q")
    3087                            .dwattr $C$DW$190, DW_AT_bit_offset(0x04)
    3088                            .dwattr $C$DW$190, DW_AT_bit_size(0x01)
    3089                            .dwattr $C$DW$190, DW_AT_data_member_location[DW_OP_plus_uconst 0x0]
    3090                            .dwattr $C$DW$190, DW_AT_accessibility(DW_ACCESS_public)
    3091                            .dwattr $C$DW$190, DW_AT_decl_file("C:/ti/simplelink_msp432p4_sdk_3_30_00_13/source/third_part
    3092                            .dwattr $C$DW$190, DW_AT_decl_line(0x147)
    3093                            .dwattr $C$DW$190, DW_AT_decl_column(0x0e)
    3094                    
    3095                    $C$DW$191       .dwtag  DW_TAG_member
    3096                            .dwattr $C$DW$191, DW_AT_type(*$C$DW$T$37)
    3097                            .dwattr $C$DW$191, DW_AT_name("V")
    3098                            .dwattr $C$DW$191, DW_AT_TI_symbol_name("V")
    3099                            .dwattr $C$DW$191, DW_AT_bit_offset(0x03)
    3100                            .dwattr $C$DW$191, DW_AT_bit_size(0x01)
    3101                            .dwattr $C$DW$191, DW_AT_data_member_location[DW_OP_plus_uconst 0x0]
    3102                            .dwattr $C$DW$191, DW_AT_accessibility(DW_ACCESS_public)
